(lp0
(dp1
S'y'
p2
(lp3
F7705467.6788722025
aF7705466.548212208
aF7705436.303110764
aF7705431.639155682
aF7705414.962002967
aF7705384.4344146345
aF7705373.127927035
aF7705367.616019545
aF7705365.496056036
aF7705384.99973939
aF425807.10412779264
aF425807.9736201125
aF426058.7128818077
aF426292.3976116916
asS'x'
p4
(lp5
F-555611.2865183783
aF-555626.959868804
aF-555687.1455344362
aF-555698.0123907317
aF-555729.3590915817
aF-555748.7940461088
aF-555764.6763745397
aF-555786.2011091227
aF-555805.4270856447
aF-555822.2498151016
aF149628.72225956264
aF149538.90351272625
aF149522.21661897234
aF149505.45658291783
asS'name'
p6
cnumpy.core.multiarray
scalar
p7
(cnumpy
dtype
p8
(S'S27'
p9
I0
I1
tp10
Rp11
(I3
S'|'
p12
NNNI27
I1
I0
tp13
bS'220 kV Crucero-Encuentro.C1'
p14
tp15
Rp16
sa(dp17
g2
(lp18
F849850.2940308184
aF849828.9983010667
aF849755.867722983
aF849666.211319078
aF849577.6451810081
aF849492.4168196956
aF849401.0515010585
aF849305.7636020882
aF849215.5211446167
aF849137.6066651996
aF849060.2537510113
aF848966.0879113204
aF848822.0343110738
aF848651.6364880714
aF848470.5829841862
aF848294.0230204733
aF848099.5131771432
aF847924.1066373589
aF847792.9362970069
aF847568.7271083707
aF847345.6391310026
aF847190.9403330421
aF846971.2195820343
aF846749.2484495649
aF846519.4292706253
aF846322.1243456879
aF846085.5893160589
aF845821.0182953414
aF845375.9664211993
aF845132.6424170062
aF844780.9460179743
aF844547.7527545572
aF844405.6710624266
aF844201.9302392497
aF843886.6499758684
aF843670.2519672571
aF843375.417250328
aF843180.3607133881
aF842676.4488773681
aF842444.9488694062
aF841943.2988058459
aF841533.6124090366
aF841028.0141863769
aF840600.8705317818
aF840244.3828301809
aF840013.4150487268
aF839534.1428890203
aF839063.3904947068
aF838671.5765315515
aF838278.6520280042
aF837864.994312654
aF837475.9554915985
aF837091.4727096136
aF836656.5002580516
aF836290.4563225182
aF835916.5884655737
aF835486.0430193341
aF835013.017076022
aF834736.1287935977
aF834361.6896840115
aF833826.4250336613
aF833492.34687099
aF832988.4397070338
aF832761.3412922102
aF832568.0270423575
aF832090.4613908313
aF831814.1474687816
aF831363.4593230363
aF830927.3724587476
aF830418.9739258727
aF830061.9287405862
aF829620.7713949408
aF829181.3682942954
aF828727.881471599
aF828304.1524699461
aF827837.7725546679
aF827361.3546265946
aF826911.7284109234
aF826436.4671547599
aF825975.1258886419
aF825497.612494906
aF825053.0931182776
aF824594.0564051003
aF824129.9447017207
aF823665.8324877152
aF823204.5220354856
aF822725.8344612063
aF822266.199860794
aF821792.0008640648
aF821317.1498498186
aF820857.6129207769
aF820409.1871662082
aF820016.24301848
aF819592.5147860742
aF819136.2126984608
aF818710.1911797326
aF818350.3948063997
aF817912.5360579591
aF817619.4694122623
aF817255.6348080093
aF816752.3376701658
aF816050.0121095332
aF815812.8183828839
aF815618.9421876266
aF815367.7698435315
aF814955.8341109797
aF814573.5585882026
aF814229.4332497567
aF813773.6397618048
aF813338.7308407663
aF812882.4077094409
aF812450.8668696051
aF812024.2726010063
aF811574.2096529806
aF811096.0837757336
aF810657.192893242
aF810192.4573423434
aF809748.0247899666
aF809265.998564631
aF808856.7870031314
aF808437.4635768647
aF808001.4357610974
aF807543.4353996618
aF807078.8425875015
aF806615.795099193
aF806188.7352159447
aF805848.4075688974
aF805398.3933522659
aF804987.4729173046
aF804591.2424420526
aF804134.9467840423
aF803674.7633555289
aF803212.8565787687
aF802779.6324650818
aF802305.9956115601
aF801919.7919494105
aF801473.6142774315
aF801028.5635387988
aF800627.785571751
aF800167.5699922591
aF799712.9877268407
aF799271.882433587
aF799006.668474118
aF798748.3220195065
aF798530.2834567404
aF798090.8291012642
aF797626.7166334568
aF797169.3097136712
aF796680.5030407852
aF796256.2406417816
aF795867.2143704051
aF795466.412593212
aF794983.8809812455
aF794546.6735043002
aF794163.1913030373
aF793685.6865054725
aF793328.6299501944
aF792838.7377868008
aF792490.1187225662
aF791993.4961538368
aF791616.7904961698
aF791235.612255746
aF790965.4086680335
aF790540.5613308607
aF790098.9046419887
aF789717.7722794148
aF789393.7084990265
aF788994.1361746029
aF788554.1002826714
aF788170.139320961
aF787699.862691331
aF787351.7761642612
aF786820.4036519162
aF786281.178017728
aF785810.8971772434
aF785437.0274071097
aF785029.508521019
aF784591.2348520211
aF784136.0904311182
aF783709.5259968082
aF783145.5859767245
aF782860.9005653614
aF782475.2613100808
aF782037.4904290272
aF781619.8999705398
aF781162.4811938803
aF780820.507104831
aF780241.5493949694
aF779872.7191389229
aF779489.8811004583
aF779095.7880807745
aF778717.490158285
aF778492.7438425021
aF778049.9007966756
aF777750.5260923558
aF777549.9227194821
aF777198.977646399
aF776784.2408200975
aF775969.9365273318
aF775443.0670936669
aF775178.1389223542
aF774983.8676173673
aF774931.7127811024
aF774723.2025610886
aF774469.2814592412
aF774249.5049415785
aF773413.2613885745
aF773020.3314852619
aF772806.743719307
aF772713.7608493019
aF772531.588275936
aF772142.5778556657
aF771716.0209220697
aF771308.4946132817
aF770981.1503986057
aF770812.3811193011
aF770551.7891630286
aF770493.4920865768
aF770408.3308861044
aF770291.1713482917
aF770170.6032285967
aF770047.2903264049
aF769904.3923652109
aF769792.3082393005
aF769669.468555525
aF769527.7183638196
aF769394.3099661944
aF769273.802294685
aF769150.516510949
aF769054.0737377228
aF768912.2302308746
aF768753.0795923464
aF768635.3671974544
aF768606.7744120094
aF768501.9633219102
aF768426.2869493009
aF768355.6671873115
aF768199.311270192
aF768080.4444641233
aF767979.5807997584
aF767589.4550189148
aF767230.6934735398
aF766874.2045230418
aF766373.0896821334
aF766054.1892128845
aF765685.2820278134
aF765289.04208972
aF764916.8876336874
aF764541.8921937067
aF764157.9349689786
aF763823.2787060575
aF763204.4649153925
aF762985.3270768393
aF762711.1962818035
aF762265.5893075638
aF761930.3336023337
aF761573.9287495941
aF761261.1319748198
aF760929.8318311197
aF760539.7316551905
aF760050.3980668893
aF759608.7333231394
aF758965.8176005844
aF758528.0457141113
aF758024.6741239354
aF757557.2174349581
aF757220.9113071321
aF756927.1947094798
aF756558.9322218548
aF755936.7255359227
aF755639.1124538912
aF755210.8718874936
aF754838.6322037773
aF754403.1302824309
aF754025.3147018512
aF753519.7800719747
aF753101.5673564577
aF752606.6611262446
aF752153.6949149934
aF751775.9873420377
aF751211.5211348545
aF750671.1725212643
aF750240.7206877901
aF749949.2499407935
aF749616.834178007
aF749249.1315649778
aF748621.3114546081
aF748136.9946034541
aF747763.1799450368
aF747450.9417190724
aF747157.2877254852
aF746734.0639333089
aF746347.3242782915
aF745987.387920659
aF745541.3019220012
aF745022.2558760766
aF744519.9922549285
aF744058.6565676187
aF743566.0173021231
aF743103.5268930967
aF742684.8729514186
aF742228.5765907655
aF741795.8838681406
aF741435.9450901521
aF741275.100659091
aF740493.2325898451
aF740237.6338883303
aF739896.8373498484
aF739590.2036003277
aF739117.148123954
aF738666.4581433197
aF738251.1146343462
aF737806.0004313039
aF737348.1391065123
aF736879.5360276587
aF736456.3472743293
aF735986.623442123
aF735542.1070819758
aF735090.2630114851
aF734617.8316059394
aF734196.8510811166
aF733746.7802169812
aF733333.1077110968
aF733230.5417935224
aF732955.8804333401
aF732564.0762992154
aF732169.4362259603
aF731878.5037611562
aF731699.7219237895
aF730941.3650369258
aF730739.5206827549
aF730391.4577350477
aF729926.1767334323
aF729570.8566354136
aF729166.1920912233
aF728751.95896501
aF728349.4828006618
aF727946.4652341774
aF727579.8821408714
aF727217.7832852907
aF726771.0747828062
aF726291.8020365904
aF725940.3804168026
aF725536.7760614194
aF725201.6115767264
aF724745.8789345301
aF724190.9333498448
aF723786.8456941305
aF723491.3948940281
aF723112.5176141821
aF722666.3608216532
aF722288.5753863563
aF722038.5851660303
aF721580.0424638253
aF721143.3997025178
aF720758.9029067338
aF720362.0268489844
aF720166.9639777748
aF719984.2701994751
aF719670.3489571267
aF719430.9959617627
aF719164.1888053734
aF718916.4737640019
aF718666.4805750111
aF718450.061086532
aF718006.6836314928
aF717588.0298279962
aF717137.2846367382
aF716653.08064115
aF716198.4719613194
aF715745.5940240826
aF715294.9019858344
aF714849.2594177099
aF714420.5201591528
aF713978.7736019427
aF713595.9310135632
aF713243.925645147
aF712798.8642775347
aF712335.2879780941
aF711850.497908432
aF711381.191093565
aF710941.2893188051
aF710517.5399613669
aF709990.6477024402
aF709502.9958580211
aF709016.4519066494
aF708542.2515920773
aF708078.1420527692
aF707508.6525241942
aF707210.4548503933
aF706848.7514397125
aF706402.1747673969
aF705951.5227431129
aF705523.2788674957
aF704884.2805512273
aF704458.2873535086
aF703867.4922793163
aF703376.4732415513
aF702740.8401950481
aF702096.243571803
aF701604.1090494473
aF701216.2227437315
aF700860.849963766
aF700244.2759320466
aF700033.5184126659
aF699382.191343483
aF698977.4935804433
aF698559.3450144716
aF698129.9886984993
aF697517.8962527947
aF697122.1655849796
aF696730.9255197258
aF696209.6326279389
aF695899.100450044
aF695326.2514312589
aF694774.6948447735
aF694365.5133804348
aF694139.0628071977
aF693707.465280029
aF693081.9178662421
aF692844.2606897024
aF692495.6087897308
aF691942.796616856
aF691770.2906798553
aF691236.6817505946
aF690760.2362811277
aF690340.9589179219
aF689936.2644209289
aF689445.2459941148
aF689004.6747819707
aF688524.8676102562
aF688064.1212329334
aF687626.9167365623
aF687204.2742588315
aF686723.3507159743
aF686280.5323521299
aF685829.8766256347
aF685355.6745592034
aF684884.8393386714
aF684407.2652994539
aF683919.6165032876
aF683466.7097842656
aF683067.6160589247
aF682711.1313394764
aF682309.796602271
aF681853.5235936036
aF681402.8651857777
aF680863.6477003545
aF680439.8857330414
aF679994.8289850052
aF679632.7324604453
aF679305.3923520367
aF679003.8359061605
aF678715.7198648406
aF678306.5417744066
aF677863.7218163772
aF677413.0718131475
aF676959.04010766
aF676620.4828447769
aF676307.7127889595
aF676005.0368031878
aF675628.3640500423
aF675237.1225517341
aF674830.1767069395
aF674435.5689992127
aF674035.3568774709
aF673635.1467001904
aF673252.8715514108
aF672793.2358608237
aF672289.8877298911
aF671867.2527601938
aF671465.9247372439
aF671093.7379180705
aF670673.3437238275
aF670144.209405175
aF669712.6096680341
aF669288.8550874139
aF668982.8080263245
aF668633.0349584199
aF668281.0292801191
aF667786.6536436654
aF667479.4784539253
aF667184.6506059021
aF666839.9050140991
aF666402.135705621
aF666088.8038147213
aF665750.803255361
aF665415.6119506536
aF665052.4000512366
aF664652.7402146375
aF664266.5390737886
aF663820.3680105968
aF663508.7148715858
aF663189.2197977426
aF662819.2713760403
aF662456.0497167832
aF662081.065195235
aF661726.811704692
aF661268.8640937153
aF661048.5858416972
aF660826.0559905628
aF660488.6209694631
aF660123.1572988066
aF659767.7838933482
aF659125.432437683
aF658805.9345838218
aF658589.566526975
aF658350.225772005
aF657984.7615611972
aF657578.3916716357
aF657391.7273408757
aF657048.1345583941
aF656647.9228288936
aF656567.7591106789
aF656245.4635895351
aF655965.1998017589
aF655721.3795336853
aF655453.4461079356
aF655262.3043664019
aF654951.2212346778
aF654701.7849628003
aF654508.9644074393
aF654232.0692624524
aF654026.914754773
aF653822.8826701893
aF653818.9066935447
aF653817.4811330684
asg4
(lp19
F76187.81160308953
aF76265.41558549511
aF76649.39177311133
aF77100.58573625027
aF77565.81257247129
aF78004.17528606366
aF78475.0131817349
aF78962.6633579649
aF79440.7945860346
aF79837.64381880048
aF80241.77593506368
aF80277.09321802168
aF80608.36515260847
aF80999.04953420637
aF81418.3116580801
aF81825.25452851898
aF82270.31498719336
aF82672.17969209453
aF82934.49933371058
aF83379.55979238349
aF83823.49176982742
aF84123.9289996775
aF84567.86097711996
aF85002.82779811988
aF85457.97144556609
aF85852.58461367043
aF86036.43301415839
aF86243.83323588429
aF86590.23517808164
aF86788.83742576999
aF86625.50021653835
aF86516.19427067353
aF86450.05273187846
aF86300.39313311956
aF86072.55486243796
aF85918.41268545631
aF85700.92927495709
aF85700.37548324227
aF85689.71760495333
aF85686.3635079625
aF85678.8402997581
aF85671.41113165661
aF85664.12824815932
aF85658.51718870613
aF85652.3523375396
aF85648.56983563733
aF85372.22776984036
aF85104.16123306807
aF84878.8306984556
aF84651.81789089787
aF84413.0396216201
aF84189.39135995288
aF83968.54340356168
aF83717.98922366419
aF83507.23490494746
aF83292.55179972427
aF83042.69769614578
aF83002.19775864751
aF82981.46714048492
aF82948.39637108814
aF82905.79620463135
aF82877.20801345583
aF82836.2901199458
aF82816.8133698185
aF82800.9728369878
aF82759.49070286329
aF82737.07781175543
aF82700.64249646667
aF82664.77142179386
aF82623.85352828381
aF82591.33655060185
aF82555.60131163207
aF82519.03016064026
aF82482.04105363668
aF82446.15953006272
aF82406.37011778311
aF82366.57025660384
aF82330.2707770196
aF82290.3350801358
aF82252.36377650598
aF82212.42807962219
aF82175.42852371893
aF82136.7571437701
aF82099.20379615056
aF82059.96817558724
aF82021.85058735323
aF81980.36845322723
aF81943.37934622365
aF81904.13327675918
aF81865.04394079858
aF81825.66203563109
aF81788.67292862751
aF81889.00326914864
aF81994.94466912297
aF82110.96925787062
aF82217.61073416246
aF82307.15780959275
aF82417.7176234914
aF82492.12424240999
aF82584.1895028076
aF82711.28992585595
aF82887.85544284512
aF82947.4141744604
aF82992.668361589
aF83058.95618498678
aF83163.06902741166
aF83258.91678971153
aF83346.92787679928
aF83461.40602830471
aF83570.5761384665
aF83685.05428997194
aF83795.342432463
aF83900.85542752591
aF84014.50811590896
aF84134.46149116306
aF84246.56774230392
aF84363.29240737057
aF84475.25237390722
aF84595.20574916132
aF84699.4648761904
aF84804.424079537
aF84914.1479814136
aF85029.75461414947
aF85146.19715890888
aF85262.9322728752
aF85373.2099664666
aF85459.11037569768
aF85574.44533702597
aF85675.47575386612
aF85776.22405039902
aF85890.57681510107
aF86008.84791740993
aF86125.01879076177
aF86235.29648435318
aF86354.68561899132
aF86478.56778075188
aF86621.49828772979
aF86765.54682703699
aF86893.34732640436
aF87041.88889283397
aF87188.18394570237
aF87328.87838801874
aF87415.33258896464
aF87498.71481322692
aF87568.22089791248
aF87710.03337255961
aF87860.25721193448
aF88006.12385989146
aF88163.0767910488
aF88301.38888410092
aF88424.84264095005
aF88554.87920497748
aF88708.88554625609
aF88847.33347501124
aF88973.03374542159
aF89127.59387841354
aF89241.38240250113
aF89398.32488475881
aF89510.43113589965
aF89668.50209938778
aF89790.12729868747
aF89913.59150443626
aF89999.90986967762
aF90137.7935578183
aF90280.0239884772
aF90401.65963667656
aF90294.74648897565
aF90163.4351591136
aF90018.26858747563
aF89889.33960687782
aF89735.19742989766
aF89620.2908734793
aF89443.72535649012
aF89264.92377483941
aF89110.21735724327
aF88986.34564438237
aF88853.08037016749
aF88707.76751392533
aF88556.9794339345
aF88414.04892695807
aF88229.21832984388
aF88133.78852355429
aF88007.1060565177
aF87798.59825136219
aF87596.809089088
aF87377.64340564204
aF87215.22569963569
aF86937.62976580638
aF86759.38197587048
aF86577.78008894373
aF86390.70297826832
aF86213.43738496014
aF86103.01340676454
aF85885.52999626532
aF85738.81698738516
aF85745.96403517941
aF85756.19350855691
aF85770.05919923249
aF85794.38423909154
aF85820.07808488961
aF85820.04673818914
aF85904.02454976639
aF85927.56592210467
aF86019.49534679922
aF86096.84855559803
aF86163.6901707106
aF86415.78033894915
aF86538.54446837894
aF86600.89305637058
aF86628.22737951227
aF86696.6049829674
aF86841.21776289056
aF86998.72448576272
aF87147.8302928083
aF87268.33745977722
aF87330.69649666852
aF87424.16190970413
aF87630.99789081555
aF87934.79966655612
aF88360.23709049754
aF88797.5862607617
aF89231.98884114566
aF89744.17303523986
aF90148.30515150305
aF90589.57265937401
aF91098.95654819219
aF91579.87763263824
aF92004.76126486484
aF92450.37551525254
aF92796.77745744989
aF93308.66908233719
aF93880.26572344248
aF94321.4496401102
aF94426.82679947006
aF94794.53404934413
aF95065.82929630388
aF95310.77241674818
aF95871.8574641702
aF96286.08321810637
aF96641.46076564741
aF96927.32177960174
aF97191.3341430642
aF97452.53575234947
aF97819.67876160909
aF98052.85642033482
aF98323.13812396636
aF98612.81298652492
aF98885.79050642991
aF99160.45029928164
aF99441.26449439875
aF99686.771855459
aF100139.67943824515
aF100298.30419344809
aF100501.21138805305
aF100827.43650380262
aF101073.05880276511
aF101334.15592304782
aF101563.96903588304
aF101612.84899140858
aF101669.91043585588
aF101740.53455287221
aF101803.87578639125
aF101898.04127574587
aF101959.70023631817
aF102033.688899225
aF102101.5127109653
aF102148.59545564187
aF102193.4316867587
aF102245.0074585577
aF102337.49067496705
aF102378.4085684771
aF102440.62132076421
aF102506.31355684555
aF102584.1160683566
aF102648.69027210864
aF102738.25824533826
aF102811.79760553285
aF102899.1295141024
aF102978.27993374871
aF103047.10683991606
aF103144.63687516266
aF103238.81281341694
aF103313.91950865454
aF103366.61331278429
aF103427.14379212617
aF103489.92078502923
aF103601.02394174303
aF103683.97776109389
aF103750.00436198374
aF103804.48492806281
aF103859.31030785006
aF103935.53503541695
aF104009.52369832525
aF104074.66214269178
aF104155.82920009333
aF104252.23075410801
aF104343.04214647178
aF104430.02924133166
aF104519.60766346243
aF104606.59475832233
aF104681.59696455588
aF104766.79729746794
aF104847.50460325759
aF104912.07880700815
aF104949.63215462769
aF105152.4348602286
aF105233.70640663421
aF105337.40129304733
aF105433.25950424685
aF105577.87228417001
aF105716.32021292516
aF105844.67450400734
aF105982.11933833692
aF106121.58081041879
aF106265.07555801266
aF106396.79439498534
aF106539.72490196324
aF106677.61903900359
aF106816.18190566245
aF106960.6797476819
aF107090.16251999451
aF107229.72848108044
aF107356.96473983183
aF107263.36349109319
aF107159.10436406558
aF107008.88052468923
aF106859.22092593033
aF106743.86506680121
aF106680.41934427961
aF106386.70075731087
aF106313.94506463854
aF106180.99325743137
aF106002.86040539917
aF105867.09784401633
aF105712.3914264187
aF105557.69545772222
aF105400.74252656488
aF105250.52913608967
aF105109.83469377331
aF104971.94055673297
aF104799.30382624877
aF104616.57345809307
aF104481.49007522842
aF104136.77040597632
aF103846.98060551552
aF103450.68516446445
aF103236.68123775945
aF103083.54215520484
aF102967.63250436091
aF102824.0228188648
aF102652.50412071138
aF102509.009373119
aF102320.66794551011
aF101975.948276258
aF101646.92285523242
aF101358.2510871024
aF101060.06037081353
aF100727.67040389596
aF100419.93984164744
aF99890.24329067844
aF99483.31086913923
aF99036.56813752108
aF98611.69495419414
aF98190.18631676068
aF97824.83006944889
aF97691.99320014544
aF97565.7600358211
aF97430.78114195901
aF97285.49963241881
aF97149.8520089382
aF97012.52211251234
aF96877.43872964916
aF96743.58831701751
aF96615.10863913195
aF96692.01254521853
aF96759.16762734031
aF96821.49531753114
aF96898.73358842623
aF96981.24855396451
aF97065.21591664209
aF97148.81756781066
aF97216.69362405226
aF97288.43577339788
aF97385.96580864298
aF97467.80159566307
aF97555.24844213635
aF97635.95574792451
aF97720.03804850581
aF97825.41520786418
aF97878.10901199393
aF97858.88303547341
aF97843.3559696519
aF97824.29717553488
aF97807.47444607795
aF97782.81504140889
aF97764.88472852232
aF97741.33290728436
aF97720.03804850581
aF97697.61470849831
aF97672.95530382925
aF97650.53196382025
aF97635.95574792451
aF97622.5080132607
aF97597.84860859165
aF97586.6369385879
aF97560.8490526884
aF97540.67222624061
aF97493.58948156257
aF97448.74280154606
aF97378.11868453122
aF97328.78942629196
aF97288.43577339788
aF97229.02332638678
aF97190.90573815277
aF97127.00026401777
aF97067.58781700669
aF97017.14052643813
aF96990.23460820787
aF96943.15186353131
aF96873.64577884575
aF96847.86834184593
aF96804.13969416019
aF96744.12121093151
aF96725.66845303209
aF96660.6449465678
aF96605.71507777799
aF96556.39626843987
aF96511.54958842337
aF96454.37320607234
aF96406.17242906352
aF96355.72513849498
aF96304.15981559714
aF96252.59449269781
aF96290.70163203217
aF96328.81922026619
aF96368.0548408295
aF96403.9259155038
aF96443.17198496826
aF96483.52563786233
aF96525.00777198834
aF96564.24339255164
aF96605.71507777799
aF96639.35008778925
aF96669.6205519115
aF96703.24511302309
aF96741.36270125711
aF96778.36225716036
aF96825.44500183841
aF96862.43410884199
aF96901.6697294053
aF96933.06867475799
aF96958.84611175633
aF96939.78731763932
aF96921.85700475275
aF96894.95108652397
aF96868.0451682937
aF96837.77470417295
aF96809.7507536119
aF96789.5739271656
aF96771.63316537788
aF96752.57437126087
aF96724.55042070131
aF96702.12708069233
aF96677.46767602327
aF96649.44372546372
aF96624.773871895
aF96600.11446722594
aF96576.57309488617
aF96548.54914432662
aF96518.27868020585
aF96492.49079430636
aF96466.71335730654
aF96442.04350373782
aF96416.26606673798
aF96381.51302439596
aF96353.47862493525
aF96332.1837661567
aF96427.47773674174
aF96533.97292843089
aF96644.95069834129
aF96795.17453771616
aF96893.82260529354
aF96982.38748409609
aF97096.13421258057
aF97234.0283496224
aF97329.87611192226
aF97438.05357655665
aF97543.43073591501
aF97657.2192600026
aF97781.65521347798
aF97899.36207517087
aF98038.37424454198
aF98146.56215807603
aF98263.15098743964
aF98390.38724619104
aF98523.2241154945
aF98653.83536903754
aF98781.62541950375
aF98940.26062360783
aF99015.36731884543
aF99097.20310586551
aF99216.03844878885
aF99346.07501281628
aF99469.39293396236
aF99699.77028741206
aF99811.31229793695
aF99884.7367202293
aF99969.37281252541
aF99804.01896553999
aF99616.25222744523
aF99529.92341330422
aF99374.09896337731
aF99189.68632227488
aF99156.06176116179
aF99007.52019473218
aF98878.60166303553
aF98574.235646679
aF98241.84567976142
aF98004.18544281443
aF97616.86560710703
aF97307.45277191327
aF97064.19192441422
aF96719.99470017795
aF96471.1227932257
aF96211.04966517087
aF96160.06948068831
aF96141.75255849045
asg6
g7
(g8
(S'S27'
p20
I0
I1
tp21
Rp22
(I3
S'|'
p23
NNNI27
I1
I0
tp24
bS'220 kV C\xc3\xb3ndores-Parinacota'
p25
tp26
Rp27
sa(dp28
g2
(lp29
F653785.4616773585
aF653792.0549057801
aF653646.3239245629
aF653437.2420926238
aF653209.1124758823
aF653114.9439515881
aF652878.9690764034
aF652700.7188693085
aF652555.5467292671
aF652415.4077897556
aF652234.925161113
aF651810.0528814513
aF651065.6741895983
aF650875.6535477652
aF650645.8415133064
aF650352.130799714
aF650082.5211997833
aF649324.1318156607
aF649135.2283129166
aF648831.432120712
aF648417.7616164424
aF648140.8691138555
aF647733.9224313023
aF647173.4038660559
aF646503.632156624
aF646217.772970906
aF645941.9928048891
aF645623.6105878372
aF645400.503313446
aF644866.8860326922
aF644459.9400760406
aF644042.955360584
aF643905.0539987683
aF643674.1127123027
aF643352.3788357996
aF642947.6816603965
aF642567.6488128183
aF642153.9839816694
aF641723.5025555533
aF641442.1112689371
aF641050.8663072572
aF640730.2536876132
aF640413.0011394187
aF639886.0730097154
aF639796.9478316759
aF639180.961625543
aF639054.2906442517
aF638587.9385446548
aF638416.4182895557
aF638144.0022153626
aF637896.2512174747
aF637567.7875251519
aF637304.3320298083
aF637056.5912186159
aF636746.0601270627
aF636343.6043699617
aF635889.5761292931
aF635562.2335499073
aF635431.0650991816
aF635092.5198797309
aF634377.2883934006
aF633995.0143779437
aF633640.7635835642
aF633324.6289069098
aF633075.7490316243
aF632755.1324594463
aF632493.9336274504
aF632277.5695765004
aF632010.765513055
aF631704.7151957182
aF631427.8210937385
aF631005.1781705115
aF630602.7326589925
aF630164.4001128781
aF629677.8650613115
aF629297.8283529524
aF629000.7525511901
aF628590.4524561865
aF628406.5966331586
aF627934.6344657405
aF627562.4562243102
aF627043.4098241478
aF626710.4546767082
aF626430.2002259456
aF626105.0975236068
aF625599.505026097
aF624854.012434178
aF624385.4106442439
aF623886.5393238985
aF623454.9407313019
aF622994.1886893827
aF622579.4041513107
aF622180.3084497768
aF621967.3174676578
aF621689.294907941
aF621421.3660043674
aF621146.7043844336
aF620860.8462913716
aF620553.6813098555
aF620234.1801180798
aF619911.3140217764
aF619583.9780470799
aF619247.6634438788
aF618856.413310226
aF618576.152659745
aF618286.9257109114
aF618129.9781948188
aF617714.0708883326
aF617554.8859468666
aF617207.3591695866
aF616637.8610914485
aF616267.9254731294
aF615880.0335860415
aF615512.3362417305
aF615084.0975665473
aF614566.7923078183
aF614230.9814144853
aF613810.5917093456
aF613423.8271298679
aF613122.2661123825
aF612801.6430468475
aF612475.4207342896
aF612248.9671239224
aF611587.5521352147
aF611307.2945683836
aF610911.5632802397
aF610624.5730586983
aF610326.3790084738
aF609990.071203161
aF609584.2486845395
aF609249.053966858
aF608940.7636725884
aF608439.6641475242
aF607952.0061260951
aF607344.3961120052
aF607096.6444488564
aF606649.3533548443
aF606272.6780201322
aF605925.1549920863
aF605663.9468263099
aF605264.8561314796
aF604966.657221843
aF604763.74851054
aF604133.7297914606
aF603810.8592947563
aF603402.8000865686
aF602924.1121662096
aF602434.2176904543
aF602023.9134563571
aF601699.9302953696
aF601259.3671438261
aF600955.5565489433
aF600727.9882827154
aF600604.6733798361
aF600191.0066485228
aF599904.024786335
aF599682.0509694689
aF599276.2384750191
aF598994.8499123282
aF598666.3841519123
aF598241.5077200378
aF597905.194573319
aF597776.2722003753
aF597713.4978894307
aF597584.5740538305
aF597247.2421611329
aF597094.6813241071
aF596953.4275108306
aF596780.7835986996
aF596615.993617835
aF596489.3186776917
aF596250.5378547511
aF595982.6094147135
aF595650.7772324388
aF595259.5300613595
aF594879.4942066763
aF594639.5953804269
aF594269.6487466488
aF593913.1502945735
aF593539.845938249
aF593007.352389981
aF592728.2065260648
aF592455.7959448756
aF592163.8315641438
aF591918.5176644512
aF591663.2184130526
aF591629.5843486143
aF591752.2382583702
aF591964.9048103327
aF591945.2545602634
aF591748.3707560245
aF591554.5138583467
aF591618.3729788852
asg4
(lp30
F96161.62636683018
aF96218.91768708493
aF96429.67200580167
aF96661.1778404818
aF96918.45066326062
aF97017.10917973766
aF97274.94624313244
aF97477.85343773592
aF97631.99561471758
aF97791.74885115096
aF97992.97377281067
aF97998.58483226238
aF98011.46832631172
aF98015.95090453299
aF98019.31545042497
aF98023.8084775474
aF98026.04454220746
aF98038.37424454198
aF98045.10333632446
aF98047.34984988568
aF98055.75076571375
aF98102.27971867549
aF98170.1035304158
aF98262.0225062092
aF98373.54361893477
aF98419.50833128055
aF98464.3445623974
aF98515.90988529671
aF98556.29488489128
aF98642.62369903378
aF98707.08296488211
aF98777.40406379038
aF98800.66331582142
aF98838.7704551543
aF98891.46425928405
aF98956.48776574834
aF99020.3827909807
aF99089.88887566626
aF99159.39496035181
aF98949.75867396586
aF98659.4046328891
aF98416.14378539006
aF98180.71961310312
aF97781.65521347798
aF97716.63170701369
aF97258.10261587468
aF97162.80864528964
aF96809.68806021094
aF96679.64104728238
aF96474.4873391177
aF96291.75697096052
aF96044.0135452402
aF95844.46044762607
aF95659.49401480884
aF95428.55242074316
aF95125.86867733336
aF94783.94931335728
aF94536.20588763697
aF94438.67585239038
aF94185.3109183172
aF93956.6262867139
aF93832.19033323853
aF93717.83756853646
aF93615.87719956988
aF93534.04141254979
aF93433.1468314127
aF93465.66380909468
aF93491.4412460945
aF93519.47564555521
aF93553.1002066668
aF93584.48870311835
aF93632.69992902683
aF93676.3658833116
aF93726.81317388016
aF93789.59016678324
aF93726.81317388016
aF93686.44907208493
aF93625.97083724434
aF93600.18295134486
aF93532.92338022051
aF93476.87547909991
aF93399.5222703011
aF93350.19301206333
aF93310.95739149854
aF93263.87464682198
aF93193.25052980563
aF93084.50882455529
aF93015.00273986973
aF93084.50882455529
aF93155.13294157162
aF93222.39251269597
aF93284.05147326826
aF93341.2278556193
aF93187.63947035393
aF92990.33288630101
aF92795.27281580931
aF92603.57729120959
aF92399.54161537418
aF92180.9401725442
aF91950.00902737968
aF91721.31394687522
aF91488.1362881495
aF91249.35801887173
aF90969.09761546944
aF90768.42648552603
aF90565.51929092106
aF90454.53107211099
aF90154.0938422609
aF90045.35213701056
aF89798.71629471987
aF89387.30129495938
aF89374.96114372519
aF89368.24250084237
aF89359.26689549869
aF89352.54825261586
aF89342.9561621564
aF89334.60749082963
aF89327.87839904714
aF89318.9132426046
aF89311.06611849135
aF89306.58354027008
aF89297.61838382605
aF89293.1253567051
aF89278.55958970904
aF89369.36053317315
aF89492.67845431775
aF89581.24333312032
aF89674.28034124449
aF89778.53946827208
aF89906.33996763945
aF90012.84560822825
aF90107.01109758286
aF90267.31812573253
aF90417.5419651074
aF90614.83810025916
aF90684.34418494473
aF90521.79064323533
aF90377.17786331217
aF90248.25933161553
aF90150.72929636893
aF90001.63393822449
aF89888.40965475288
aF89867.10434707465
aF89791.99765183705
aF89752.76203127374
aF89702.3147407052
aF89647.38487191538
aF89590.20848956435
aF89543.1257448863
aF89501.64361076178
aF89452.31435252252
aF89417.56131018048
aF89387.30129495938
aF89374.96114372519
aF89326.76036671636
aF89293.1253567051
aF89265.10140614407
aF89218.0186614675
aF89187.74819734525
aF89145.14803088996
aF89093.58270799213
aF89054.34708742733
aF88753.90985757727
aF88610.41510998488
aF88312.21394479487
aF87509.24730471248
aF87144.08958650618
aF86806.65280075285
aF86400.82796264326
aF86018.55494577311
aF85713.63513770176
aF85697.94088947673
aF85682.24664125023
aF85663.18784713322
aF85641.882539455
aF85620.58768067793
aF85608.25797834339
aF85583.58812477319
aF85564.52933065618
aF85544.35250420988
aF85527.54022365408
aF85533.14083420613
aF85539.8699259886
aF85440.80390240096
aF85354.75720856569
aF85260.7275549156
aF85084.72627854091
aF84990.79066499225
aF84824.78898618912
aF84783.42178996683
aF84700.55156181921
aF84619.10238411042
aF84467.02908938381
asg6
g7
(g8
(S'S26'
p31
I0
I1
tp32
Rp33
(I3
S'|'
p34
NNNI26
I1
I0
tp35
bS'220 kV Tarapac\xc3\xa1-C\xc3\xb3ndores'
p36
tp37
Rp38
sa(dp39
g2
(lp40
F334024.7131082397
aF333972.9156214199
aF333837.8324012025
aF333837.8324012025
aF333710.92669243505
aF333591.53985381173
aF333463.3598334836
aF333146.14259640407
aF332884.6052301908
aF332902.474385472
aF332916.02675692644
aF332931.3171800091
aF332949.83379368857
aF332956.83147742506
aF332772.1415347927
aF332585.6998934257
aF332402.51637607627
aF332221.7390684481
aF332040.55063836556
aF331858.916988994
aF331676.2246196461
aF331485.82732667075
aF331307.11823524535
aF331132.0653667911
aF330946.3989717886
aF330765.7293791631
aF330587.42086652573
aF330411.56441076705
aF330224.3099356415
aF330042.8932520887
aF329867.950850246
aF329734.5242471793
aF329590.67717565596
aF329442.329200109
aF329395.00434678467
aF329345.40683377255
aF329277.4130965383
aF329213.5096150539
aF329158.34378738794
aF329107.39333782904
aF329051.88624246884
aF328997.96974027297
aF328947.6323489351
aF328902.203562696
aF328856.02468767855
aF328733.3727342477
aF328606.2313633319
aF328463.5667778207
aF328355.0476201656
aF328226.6758446037
aF328181.2221814939
aF328260.89100003056
aF328312.128364054
aF328382.47860904783
aF328554.1654782663
aF328564.2559561441
aF328715.9418502804
aF328881.92078172974
aF329028.43343967106
aF329156.25304972334
aF329250.27914745174
aF329376.05163921975
aF329426.29671524
aF329530.59278358147
aF329644.09163770685
aF329758.4418158154
aF329875.09765653824
aF329988.0031166817
aF330093.840574102
aF330222.48066815315
aF330359.10703020124
aF330480.06436586846
aF330600.0209184685
aF330714.03444074094
aF330842.05578317214
aF330923.4830691912
aF331009.35219872417
aF331157.71900862316
aF331316.5365861142
aF331445.76849693386
aF331586.00802333746
aF331755.19352565706
aF331950.7906220057
aF332101.7952723247
aF332409.5143108568
aF332567.3191597732
aF332732.84720579395
aF332859.77240876295
aF333219.6285299687
aF333291.9327087831
aF333405.4262913121
aF333522.0315201804
aF333802.3234450794
aF333930.9209071356
aF334079.4751284858
aF334248.21270476235
aF334412.74566416116
aF334569.643823782
aF334740.87486255495
aF334947.2014536746
aF335117.8603450563
aF335296.1159218955
aF335417.7496818355
aF335715.39563919744
aF336059.8290350842
aF336397.8150691758
aF336741.4153706897
aF337079.3863268662
aF337421.9037863435
aF337761.8129769629
aF338096.77472717967
aF338436.1351883188
aF338780.0416902718
aF339119.7162894672
aF339460.2349716779
aF339754.80454088235
aF340015.99722834816
aF340260.67610310996
aF340631.7007771735
aF340965.7708401345
aF341137.55469994247
aF341401.01721019996
aF341627.46304788906
aF342058.22882977827
aF342324.76348611386
aF342690.7656703335
aF343032.41960508237
aF343363.11110339034
aF343686.58700464247
aF344024.5294390265
aF344359.2065656488
aF344698.8935921858
aF345029.81018992374
aF345337.5642720093
aF345672.1673211283
aF346010.5313271573
aF346296.3943425757
aF346587.87015762273
aF346864.2114894367
aF347047.1651430656
aF347247.26536533237
aF347496.67481710203
aF347690.9812177061
aF347822.696428298
aF348048.8204125939
aF348207.22437836044
aF348498.6865799199
aF348820.090918167
aF349116.02389412373
aF349432.7173774843
aF349734.31225623237
aF350012.88906253176
aF350161.40077439835
aF350318.3418696122
aF350484.6198395933
aF350630.58531371085
aF350779.4541442315
aF350909.13451262563
aF351029.08986410405
aF351212.7200401379
aF351336.03150898544
aF351456.23314180924
aF351816.4012530516
aF352173.67913205875
aF352482.54931706283
aF352854.7418949455
aF353179.6173734893
aF353490.3392097973
aF353865.3548234026
aF354208.9607903827
aF354594.34983575763
aF354936.5215653763
aF355091.78044107836
aF355211.17001345335
aF355333.9276174605
aF355448.2789266594
aF355596.0008207429
aF355768.8686859086
aF355925.2761323727
aF356085.5612059063
aF356150.38482024753
aF356268.3256669417
aF356424.14956946997
aF356583.1137314332
aF356714.8321315823
aF356844.87076201197
aF356976.25800155476
aF357116.139264144
aF357255.3727685879
aF357388.80936612515
aF357520.30537964636
aF357643.03322277917
aF357756.48273744574
aF357861.66351606743
aF358043.82848279784
aF358179.4811213226
aF358294.9227189524
aF358403.12787512084
aF358544.3797674179
aF358520.2802789053
aF358500.09338420816
aF358475.4381184969
aF358455.2511650175
aF358428.88333480246
aF358413.9698968637
aF358541.57855821867
aF358671.057399855
aF358786.7448090301
aF358910.0409323927
aF359021.3604255081
aF359126.96350420685
aF359243.9062749231
aF359344.2459120229
aF359532.5510730371
aF359706.2139070416
aF359875.82642312674
aF360026.30678074295
aF360184.9275893108
aF360301.85099037876
aF360269.01137776347
aF360378.3139470606
aF360489.27130750474
aF360609.0272515286
aF360723.90635705506
aF360847.22099715285
aF360949.2283896776
aF361080.08170424635
aF361205.6386107593
aF361340.1408650805
aF361468.4963311311
aF361586.7933156616
aF361709.29601285886
aF361839.0317029427
aF361966.6120039411
aF362092.36578056635
aF362211.22489014687
aF362344.0630055084
aF362460.06298788404
aF362592.9102978264
aF362870.95963051636
aF363162.98313073115
aF363434.84334465815
aF363803.0754049863
aF364126.26888939785
aF364463.3769237809
aF364793.5510982694
aF365137.7069372609
aF365408.99958055187
aF365726.5936399647
aF366001.2198926406
aF366260.4366587782
aF366544.62019960163
aF366720.04036798887
aF366912.2906953008
aF367123.95484695584
aF367335.4914194769
aF367540.9725729553
aF367755.0989583032
aF367948.1751234676
aF368134.82256832486
aF368323.46249746205
aF368542.859490043
aF368753.63996775914
aF368944.2216699384
aF369140.3769292715
aF369325.15136583196
aF370401.54549172195
aF370725.5301923943
aF371034.9694749466
aF371360.40267574275
aF371691.90259497147
aF372011.14656510856
aF372343.1990848817
aF372670.9048791542
aF372995.09133792855
aF373316.85770102404
aF373647.5339649031
aF373967.9612069628
aF374291.5767022348
aF374622.0622185571
aF374940.464087036
aF375259.38053049287
aF375565.97640312556
aF375887.7233523773
aF376221.48259103764
aF376568.44275292894
aF376899.15157549316
aF377220.3384747808
aF377555.8700162056
aF377868.29906082666
aF378152.21291633416
aF378430.0846343818
aF378669.60100949043
aF379043.8924489822
aF379426.7030524425
aF379824.69148441684
aF380217.6527191447
aF380617.863172058
aF381011.91412740713
aF381410.4168069046
aF381807.82216841355
aF382201.3107227278
aF382597.74469311256
aF382983.26447990304
aF383371.6846469557
aF383768.56430289196
aF384169.89475688525
aF384575.7096310803
aF384955.2704950939
aF385258.5162680452
aF385589.8099034303
aF385890.79044442624
aF386198.39908360224
aF386510.6430282667
aF386854.350910658
aF387223.1475231503
aF387581.792969679
aF387952.9720604429
aF388315.04171262356
aF388681.6304965392
aF389048.7992181573
aF389418.7435957948
aF389791.4860688052
aF390159.19451943645
aF390530.25559987966
aF390906.7853994495
aF391292.57471162593
aF391649.5987138278
aF392015.50927591324
aF392379.8722485951
aF392750.3486224478
aF393095.095694392
aF393450.47163943667
aF393826.5801565079
aF394155.02130748844
aF394527.23192264186
aF394894.907914279
aF395267.6892170501
aF395639.9524953449
aF395998.0423175823
aF396370.20898944186
aF396737.45693707047
aF397100.5670894771
aF397462.2434254922
aF397831.0720378291
aF398183.63663093
aF398542.8219416309
aF398898.7186725992
aF399262.0500743068
aF399629.11695291894
aF400010.3814126244
aF400322.586513096
aF400462.02095509693
aF400626.81168038864
aF400904.4184855204
aF401185.11925314507
aF401460.3411320448
aF401690.1508020228
aF401967.04887562664
aF402251.8018359095
aF402583.5943036238
aF402902.64629158564
aF403229.3249055515
aF403560.58779109735
aF403874.5087136151
aF404194.5747000426
aF404476.4829055574
aF404839.27776463097
aF405209.11973320646
aF405587.4668689966
aF405942.8416349329
aF406311.0747026801
aF406681.71857052203
aF407071.7314218413
aF407337.9864708409
aF407684.92185284384
aF408050.5138900904
aF408369.906767956
aF408745.4306768514
aF409052.0357388025
aF409479.7331791152
aF409807.0546941976
aF410155.2805773462
aF410475.89656514535
aF410828.47051465884
aF411195.60559455724
aF411532.9052200732
aF411892.33841209486
aF412235.37571443664
aF412702.82431269344
aF412929.1692709299
aF413266.14914837806
aF413592.8493150701
aF413889.93500626367
aF414196.620453706
aF414580.46888160147
aF414943.1206466472
aF415306.3742286186
aF415643.77772945305
aF416021.71529385354
aF416402.75096216565
aF416769.3378178966
aF417137.0120707522
aF417481.7652578638
aF417847.784685818
aF418193.17756496
aF418554.01758636255
aF418896.60460061627
aF419241.2401821045
aF419560.71075510886
aF419911.60127093224
aF420260.24734789133
aF420622.9264211585
aF420991.18844892364
aF421370.1046244693
aF421723.7673168769
aF422091.60831030086
aF422453.00285357237
aF422830.26882238314
aF423203.0194728314
aF423564.55795568554
aF423882.9245123458
aF424212.52143202163
aF424583.1050525368
aF425101.6138949143
aF425387.4838045058
aF425705.8587595308
aF425703.47610920575
asg4
(lp41
F60866.818993267916
aF60890.20363210234
aF60997.263064407445
aF60997.263064407445
aF60892.86810167532
aF60765.5169050202
aF60819.809390893446
aF60953.7120480249
aF61067.27069630653
aF61413.35917149468
aF61751.90354067911
aF62066.41543920991
aF62482.0099990851
aF62682.07509281242
aF63037.51533375441
aF63397.37545951672
aF63746.44187128556
aF64089.5106142914
aF64440.719050618885
aF64786.00296048546
aF65137.67114842633
aF65497.13421597768
aF65837.24592020364
aF66172.5929259011
aF66527.45847732747
aF66872.20949328004
aF67212.97947822338
aF67547.13530928944
aF67903.57864465848
aF68250.49258296903
aF68585.93362876939
aF68839.57023425013
aF69115.21222372662
aF69394.73075520976
aF69743.59863787313
aF70102.96766532307
aF70597.13795532745
aF71056.91046560061
aF71453.72835166455
aF71820.35936481097
aF72219.68498694402
aF72607.5899610667
aF72969.66525368826
aF73312.67130329316
aF73643.83874887739
aF73930.66106165864
aF74220.74343132782
aF74555.48440080769
aF74813.62448231052
aF75096.06870587307
aF75205.31195833694
aF75572.40272309526
aF75826.81254719711
aF76172.92192018608
aF76614.79546427315
aF76656.67465660862
aF77042.94960228734
aF77403.63519117204
aF77733.27709731339
aF78017.00653561171
aF78223.93655682456
aF78497.11260583503
aF78645.01678934808
aF78982.03561908963
aF79352.96113025151
aF79723.34329859972
aF80106.22235168597
aF80472.8742626332
aF80819.28665373022
aF81253.0518511976
aF81697.69435385872
aF82084.3872555492
aF82475.90754917063
aF82847.43909654861
aF83261.03791646934
aF83522.1768323522
aF83805.31068333409
aF84092.10164941338
aF84405.62090241828
aF84655.3182724929
aF84912.73737987592
aF85241.95088110583
aF85627.3167724604
aF85924.84920803188
aF86506.26781540406
aF86808.24103359519
aF87126.80710543731
aF87373.31756092462
aF88081.8261424455
aF88215.79149297938
aF88425.42777936535
aF88655.79468391537
aF89192.88905628539
aF89436.04541478187
aF89721.91687763736
aF90045.7282974207
aF90367.470834949
aF90672.27570511811
aF90998.21870055895
aF91390.70029300729
aF91719.72571403289
aF92063.60947126144
aF92298.75152323965
aF92474.75279961436
aF92680.46029949535
aF92882.24946176805
aF93086.55680901102
aF93288.79527399746
aF93491.81740650465
aF93694.62011210705
aF93893.99557841502
aF94096.51616370869
aF94300.65632854665
aF94503.2814028429
aF94706.47071775509
aF94882.20032272222
aF95037.17841172742
aF95182.91967288102
aF95402.53465903772
aF95603.4774603887
aF95704.65416183304
aF95861.59664409074
aF95996.68002695538
aF96251.99890538138
aF96412.30593353105
aF96629.5176726227
aF96833.82501986566
aF97029.73145128058
aF97223.77797844408
aF97424.6162907925
aF97623.70963679324
aF97825.2166787587
aF98016.53604294977
aF98199.26641110695
aF98397.13723577434
aF98600.99528030507
aF98769.71367318099
aF98942.36085256485
aF99107.1504589358
aF99422.89532770107
aF99761.45014578517
aF100198.09923973033
aF100533.67612123374
aF100762.93544235267
aF101152.10473341032
aF101429.95144084639
aF101631.74060312058
aF101853.31998253275
aF102053.99111247616
aF102272.0283146902
aF102479.41808751642
aF102668.32375574126
aF103006.3143332094
aF103362.24567246526
aF103732.58604521185
aF104060.66061631167
aF104390.07264664855
aF104682.84038369003
aF104950.20684414332
aF105360.90086978399
aF105645.64385140904
aF105912.62370255102
aF106040.25701951339
aF106163.74212306298
aF106269.67307413617
aF106400.83811939551
aF106515.57749340739
aF106621.12183517075
aF106752.85112104457
aF106873.35828801349
aF107007.15645614236
aF107127.84125441744
aF107525.80851951262
aF107831.8568088144
aF108147.42404627502
aF108443.94293851979
aF108823.81270832488
aF109263.99353056555
aF109663.64306860746
aF110080.11533610485
aF110243.05548712553
aF110541.97762643387
aF110942.19140509027
aF111354.01391196286
aF111704.89843238148
aF112054.66492046934
aF112403.4805586314
aF112781.10381487677
aF113152.3323441467
aF113505.46337812653
aF113858.42722970135
aF114186.88841011099
aF114489.18554421247
aF114768.15028397931
aF115250.76409027175
aF115616.78906720207
aF115929.55599938666
aF116209.81640278896
aF116594.33593322033
aF116975.49091775971
aF117319.09255468103
aF117709.21269566297
aF118020.30780380347
aF118449.66356535019
aF118670.12491243158
aF119066.24272217651
aF119461.40968199716
aF119823.11926310824
aF120207.07455292513
aF120542.6618833282
aF120869.60797319758
aF121238.26607299891
aF121538.703302849
aF121900.24570155656
aF122231.37135153916
aF122552.29887484472
aF122835.6103571298
aF123137.7298599266
aF123356.0909780495
aF123455.55405984812
aF123783.46144854292
aF124123.1342989578
aF124480.49713755213
aF124823.5345338575
aF125194.5958807239
aF125504.57295653214
aF125892.1435658463
aF126273.86279100164
aF126673.51232904356
aF127061.95019708024
aF127416.20971229051
aF127786.45604493418
aF128177.39120014032
aF128559.9776840182
aF128936.90086394307
aF129287.23159264687
aF129687.44537130327
aF130041.69443761389
aF130436.29715681856
aF130624.63858442745
aF130818.01638197391
aF131004.11129602158
aF131250.1828976978
aF131464.05098869826
aF131691.86836157905
aF131911.59828563948
aF132141.4113984747
aF132323.02373430112
aF132537.4456170179
aF132719.62219345875
aF132895.87424344022
aF133084.7694627654
aF133204.72283801952
aF133502.92400320803
aF133832.25244234316
aF134161.53908587518
aF134480.7843362355
aF134814.29233548234
aF135121.1451901072
aF135409.8169582372
aF135702.15629036876
aF136044.89066856608
aF136375.03412192242
aF136671.55301416572
aF136977.03706285302
aF137263.21154381655
aF138146.85414298662
aF138362.65528054058
aF138569.48081275236
aF138787.84193087523
aF139008.37642025872
aF139222.79830297548
aF139445.02551420388
aF139662.81194281115
aF139881.11036753308
aF140096.91150508708
aF140316.63098024784
aF140529.94527953496
aF140747.11522302646
aF140967.7124058094
aF141179.58475685693
aF141395.38589441238
aF141597.73929730104
aF141814.0942265698
aF142036.87522951452
aF142270.05288823874
aF142489.78281230066
aF142705.01970923867
aF142927.85295668317
aF143138.30425729335
aF143328.64142485667
aF143514.40197409582
aF143672.80730239247
aF143674.1552105292
aF143676.95551580522
aF143678.073548136
aF143678.63778875046
aF143682.55612635726
aF143684.23839930253
aF143685.3564316333
aF143686.48491286373
aF143688.7209775238
aF143691.301855895
aF143690.967491085
aF143693.20355574656
aF143694.8858286918
aF143697.132342253
aF143699.37885581423
aF143700.26701233754
aF143824.14917409813
aF143956.98604340156
aF144078.0678998861
aF144204.40555321303
aF144329.95953901915
aF144469.87031381475
aF144617.28339901395
aF144763.24408707384
aF144914.36653187318
aF145059.53310351114
aF145209.19270227154
aF145358.85230103045
aF145506.2758351308
aF145657.05346622047
aF145807.83109731015
aF145957.49069607054
aF146109.6266841981
aF146265.22125831907
aF146410.96251947267
aF146559.72351280708
aF146707.13659800627
aF146857.36043738114
aF146995.80836613776
aF147141.5391783902
aF147293.44529071182
aF147427.97488186165
aF147577.63448062056
aF147725.6118064357
aF147877.50746985618
aF148026.94764171026
aF148172.90832977014
aF148325.3682338051
aF148470.87961915272
aF148618.52258015785
aF148764.59820612
aF148914.25780488038
aF149058.3063441876
aF149202.02051868624
aF149347.76177983984
aF149494.95543813275
aF149641.46991790744
aF149786.99175215623
aF149914.78180262243
aF149840.4587749056
aF149927.34138076293
aF150071.17049316532
aF150222.73179177576
aF150367.35502060008
aF150488.42642818348
aF150634.1572404374
aF150784.38107981227
aF150931.24037329663
aF151070.0226668618
aF151211.50077669893
aF151357.23158895285
aF151493.44345304795
aF151633.57365474835
aF151754.64506233323
aF151913.05039062988
aF152076.3875998615
aF152238.37690095496
aF152394.76559149782
aF152553.39034670076
aF152715.7140126042
aF152887.4625865636
aF153003.48717531122
aF153097.6631135655
aF153200.0100918419
aF153287.67636522
aF153392.48928396386
aF153477.13582515964
aF153594.84268685253
aF153685.64363031666
aF153780.15393338093
aF153867.03653923678
aF153966.24884742862
aF154067.69722028053
aF154159.29228016507
aF154258.83895316542
aF154353.00444252003
aF154479.68690955662
aF154544.36560231124
aF154418.02794898432
aF154293.81142241525
aF154181.70517127292
aF154068.2614608965
aF153922.18583493287
aF153783.73790617773
aF153648.0902826971
aF153518.6075103845
aF153378.2578817778
aF153234.4287693754
aF153093.73432705906
aF152953.60412535866
aF152825.80362599128
aF152686.79145662018
aF152556.5250167868
aF152419.4249961669
aF152290.84082927875
aF152160.45945154168
aF152038.83425224197
aF151913.26981753617
aF151785.46931816882
aF151656.55078647216
aF151519.78513066226
aF151385.26598841356
aF151254.65473486902
aF151123.83450332083
aF150994.0173661997
aF150856.12322915788
aF150720.48605457842
aF150588.75676870608
aF150473.8502122877
aF150354.46107764958
aF150219.71205959492
aF150030.81684026975
aF149925.9934726262
aF149813.88722148535
aF149717.673747675
asg6
g7
(g8
(S'S27'
p42
I0
I1
tp43
Rp44
(I3
S'|'
p45
NNNI27
I1
I0
tp46
bS'220 kV Atacama-Encuentro.C2'
p47
tp48
Rp49
sa(dp50
g2
(lp51
F333837.8324012025
aF334005.42538039805
aF334055.5188986254
aF333837.8324012025
aF333710.92669243505
aF333591.53985381173
aF333463.3598334836
aF333146.14259640407
aF332884.6052301908
aF332902.474385472
aF332916.02675692644
aF332931.3171800091
aF332949.83379368857
aF332956.83147742506
aF332772.1415347927
aF332585.6998934257
aF332402.51637607627
aF332221.7390684481
aF332040.55063836556
aF331858.916988994
aF331676.2246196461
aF331485.82732667075
aF331307.11823524535
aF331132.0653667911
aF330946.3989717886
aF330765.7293791631
aF330587.42086652573
aF330411.56441076705
aF330224.3099356415
aF330042.8932520887
aF329867.950850246
aF329734.5242471793
aF329590.67717565596
aF329442.329200109
aF329395.00434678467
aF329345.40683377255
aF329277.4130965383
aF329213.5096150539
aF329158.34378738794
aF329107.39333782904
aF329051.88624246884
aF328997.96974027297
aF328947.6323489351
aF328902.203562696
aF328856.02468767855
aF328733.3727342477
aF328606.2313633319
aF328463.5667778207
aF328355.0476201656
aF328226.6758446037
aF328181.2221814939
aF328260.89100003056
aF328312.128364054
aF328382.47860904783
aF328554.1654782663
aF328564.2559561441
aF328715.9418502804
aF328881.92078172974
aF329028.43343967106
aF329156.25304972334
aF329250.27914745174
aF329376.05163921975
aF329426.29671524
aF329530.59278358147
aF329644.09163770685
aF329758.4418158154
aF329875.09765653824
aF329988.0031166817
aF330093.840574102
aF330222.48066815315
aF330359.10703020124
aF330480.06436586846
aF330600.0209184685
aF330714.03444074094
aF330842.05578317214
aF330923.4830691912
aF331009.35219872417
aF331157.71900862316
aF331316.5365861142
aF331445.76849693386
aF331586.00802333746
aF331755.19352565706
aF331950.7906220057
aF332101.7952723247
aF332409.5143108568
aF332567.3191597732
aF332732.84720579395
aF332859.77240876295
aF333219.6285299687
aF333291.9327087831
aF333405.4262913121
aF333522.0315201804
aF333802.3234450794
aF333930.9209071356
aF334079.4751284858
aF334248.21270476235
aF334412.74566416116
aF334569.643823782
aF334740.87486255495
aF334947.2014536746
aF335117.8603450563
aF335296.1159218955
aF335417.7496818355
aF335715.39563919744
aF336059.8290350842
aF336397.8150691758
aF336741.4153706897
aF337079.3863268662
aF337421.9037863435
aF337761.8129769629
aF338096.77472717967
aF338436.1351883188
aF338780.0416902718
aF339119.7162894672
aF339460.2349716779
aF339754.80454088235
aF340015.99722834816
aF340260.67610310996
aF340631.7007771735
aF340965.7708401345
aF341137.55469994247
aF341401.01721019996
aF341627.46304788906
aF342058.22882977827
aF342324.76348611386
aF342690.7656703335
aF343032.41960508237
aF343363.11110339034
aF343686.58700464247
aF344024.5294390265
aF344359.2065656488
aF344698.8935921858
aF345029.81018992374
aF345337.5642720093
aF345672.1673211283
aF346010.5313271573
aF346296.3943425757
aF346587.87015762273
aF346864.2114894367
aF347047.1651430656
aF347247.26536533237
aF347496.67481710203
aF347690.9812177061
aF347822.696428298
aF348048.8204125939
aF348207.22437836044
aF348498.6865799199
aF348820.090918167
aF349116.02389412373
aF349432.7173774843
aF349734.31225623237
aF350012.88906253176
aF350161.40077439835
aF350318.3418696122
aF350484.6198395933
aF350630.58531371085
aF350779.4541442315
aF350909.13451262563
aF351029.08986410405
aF351212.7200401379
aF351336.03150898544
aF351456.23314180924
aF351816.4012530516
aF352173.67913205875
aF352482.54931706283
aF352854.7418949455
aF353179.6173734893
aF353490.3392097973
aF353865.3548234026
aF354208.9607903827
aF354594.34983575763
aF354936.5215653763
aF355091.78044107836
aF355211.17001345335
aF355333.9276174605
aF355448.2789266594
aF355596.0008207429
aF355768.8686859086
aF355925.2761323727
aF356085.5612059063
aF356150.38482024753
aF356268.3256669417
aF356424.14956946997
aF356583.1137314332
aF356714.8321315823
aF356844.87076201197
aF356976.25800155476
aF357116.139264144
aF357255.3727685879
aF357388.80936612515
aF357520.30537964636
aF357643.03322277917
aF357756.48273744574
aF357861.66351606743
aF358043.82848279784
aF358179.4811213226
aF358294.9227189524
aF358403.12787512084
aF358544.3797674179
aF358520.2802789053
aF358500.09338420816
aF358475.4381184969
aF358455.2511650175
aF358428.88333480246
aF358413.9698968637
aF358541.57855821867
aF358671.057399855
aF358786.7448090301
aF358910.0409323927
aF359021.3604255081
aF359126.96350420685
aF359243.9062749231
aF359344.2459120229
aF359532.5510730371
aF359706.2139070416
aF359875.82642312674
aF360026.30678074295
aF360184.9275893108
aF360301.85099037876
aF360269.01137776347
aF360378.3139470606
aF360489.27130750474
aF360609.0272515286
aF360723.90635705506
aF360847.22099715285
aF360949.2283896776
aF361080.08170424635
aF361205.6386107593
aF361340.1408650805
aF361468.4963311311
aF361586.7933156616
aF361709.29601285886
aF361839.0317029427
aF361966.6120039411
aF362092.36578056635
aF362211.22489014687
aF362344.0630055084
aF362460.06298788404
aF362592.9102978264
aF362870.95963051636
aF363162.98313073115
aF363434.84334465815
aF363803.0754049863
aF364126.26888939785
aF364463.3769237809
aF364793.5510982694
aF365137.7069372609
aF365408.99958055187
aF365726.5936399647
aF366001.2198926406
aF366260.4366587782
aF366544.62019960163
aF366720.04036798887
aF366912.2906953008
aF367123.95484695584
aF367335.4914194769
aF367540.9725729553
aF367755.0989583032
aF367948.1751234676
aF368134.82256832486
aF368323.46249746205
aF368542.859490043
aF368753.63996775914
aF368944.2216699384
aF369140.3769292715
aF369325.15136583196
aF370401.54549172195
aF370725.5301923943
aF371034.9694749466
aF371360.40267574275
aF371691.90259497147
aF372011.14656510856
aF372343.1990848817
aF372670.9048791542
aF372995.09133792855
aF373316.85770102404
aF373647.5339649031
aF373967.9612069628
aF374291.5767022348
aF374622.0622185571
aF374940.464087036
aF375259.38053049287
aF375565.97640312556
aF375887.7233523773
aF376221.48259103764
aF376568.44275292894
aF376899.15157549316
aF377220.3384747808
aF377555.8700162056
aF377868.29906082666
aF378152.21291633416
aF378430.0846343818
aF378669.60100949043
aF379043.8924489822
aF379426.7030524425
aF379824.69148441684
aF380217.6527191447
aF380617.863172058
aF381011.91412740713
aF381410.4168069046
aF381807.82216841355
aF382201.3107227278
aF382597.74469311256
aF382983.26447990304
aF383371.6846469557
aF383768.56430289196
aF384169.89475688525
aF384575.7096310803
aF384955.2704950939
aF385258.5162680452
aF385589.8099034303
aF385890.79044442624
aF386198.39908360224
aF386510.6430282667
aF386854.350910658
aF387223.1475231503
aF387581.792969679
aF387952.9720604429
aF388315.04171262356
aF388681.6304965392
aF389048.7992181573
aF389418.7435957948
aF389791.4860688052
aF390159.19451943645
aF390530.25559987966
aF390906.7853994495
aF391292.57471162593
aF391649.5987138278
aF392015.50927591324
aF392379.8722485951
aF392750.3486224478
aF393095.095694392
aF393450.47163943667
aF393826.5801565079
aF394155.02130748844
aF394527.23192264186
aF394894.907914279
aF395267.6892170501
aF395639.9524953449
aF395998.0423175823
aF396370.20898944186
aF396737.45693707047
aF397100.5670894771
aF397462.2434254922
aF397831.0720378291
aF398183.63663093
aF398542.8219416309
aF398898.7186725992
aF399262.0500743068
aF399629.11695291894
aF400010.3814126244
aF400322.586513096
aF400462.02095509693
aF400626.81168038864
aF400904.4184855204
aF401185.11925314507
aF401460.3411320448
aF401690.1508020228
aF401967.04887562664
aF402251.8018359095
aF402583.5943036238
aF402902.64629158564
aF403229.3249055515
aF403560.58779109735
aF403874.5087136151
aF404194.5747000426
aF404476.4829055574
aF404839.27776463097
aF405209.11973320646
aF405587.4668689966
aF405942.8416349329
aF406311.0747026801
aF406681.71857052203
aF407071.7314218413
aF407337.9864708409
aF407684.92185284384
aF408050.5138900904
aF408369.906767956
aF408745.4306768514
aF409052.0357388025
aF409479.7331791152
aF409807.0546941976
aF410155.2805773462
aF410475.89656514535
aF410828.47051465884
aF411195.60559455724
aF411532.9052200732
aF411892.33841209486
aF412235.37571443664
aF412702.82431269344
aF412929.1692709299
aF413266.14914837806
aF413592.8493150701
aF413889.93500626367
aF414196.620453706
aF414580.46888160147
aF414943.1206466472
aF415306.3742286186
aF415643.77772945305
aF416021.71529385354
aF416402.75096216565
aF416769.3378178966
aF417137.0120707522
aF417481.7652578638
aF417847.784685818
aF418193.17756496
aF418554.01758636255
aF418896.60460061627
aF419241.2401821045
aF419560.71075510886
aF419911.60127093224
aF420260.24734789133
aF420622.9264211585
aF420991.18844892364
aF421370.1046244693
aF421723.7673168769
aF422091.60831030086
aF422453.00285357237
aF422830.26882238314
aF423203.0194728314
aF423564.55795568554
aF423882.9245123458
aF424212.52143202163
aF424583.1050525368
aF425101.6138949143
aF425387.4838045058
aF425705.8587595308
aF425703.47610920575
asg4
(lp52
F60997.263064407445
aF60955.78093028144
aF60933.78599518536
aF60997.263064407445
aF60892.86810167532
aF60765.5169050202
aF60819.809390893446
aF60953.7120480249
aF61067.27069630653
aF61413.35917149468
aF61751.90354067911
aF62066.41543920991
aF62482.0099990851
aF62682.07509281242
aF63037.51533375441
aF63397.37545951672
aF63746.44187128556
aF64089.5106142914
aF64440.719050618885
aF64786.00296048546
aF65137.67114842633
aF65497.13421597768
aF65837.24592020364
aF66172.5929259011
aF66527.45847732747
aF66872.20949328004
aF67212.97947822338
aF67547.13530928944
aF67903.57864465848
aF68250.49258296903
aF68585.93362876939
aF68839.57023425013
aF69115.21222372662
aF69394.73075520976
aF69743.59863787313
aF70102.96766532307
aF70597.13795532745
aF71056.91046560061
aF71453.72835166455
aF71820.35936481097
aF72219.68498694402
aF72607.5899610667
aF72969.66525368826
aF73312.67130329316
aF73643.83874887739
aF73930.66106165864
aF74220.74343132782
aF74555.48440080769
aF74813.62448231052
aF75096.06870587307
aF75205.31195833694
aF75572.40272309526
aF75826.81254719711
aF76172.92192018608
aF76614.79546427315
aF76656.67465660862
aF77042.94960228734
aF77403.63519117204
aF77733.27709731339
aF78017.00653561171
aF78223.93655682456
aF78497.11260583503
aF78645.01678934808
aF78982.03561908963
aF79352.96113025151
aF79723.34329859972
aF80106.22235168597
aF80472.8742626332
aF80819.28665373022
aF81253.0518511976
aF81697.69435385872
aF82084.3872555492
aF82475.90754917063
aF82847.43909654861
aF83261.03791646934
aF83522.1768323522
aF83805.31068333409
aF84092.10164941338
aF84405.62090241828
aF84655.3182724929
aF84912.73737987592
aF85241.95088110583
aF85627.3167724604
aF85924.84920803188
aF86506.26781540406
aF86808.24103359519
aF87126.80710543731
aF87373.31756092462
aF88081.8261424455
aF88215.79149297938
aF88425.42777936535
aF88655.79468391537
aF89192.88905628539
aF89436.04541478187
aF89721.91687763736
aF90045.7282974207
aF90367.470834949
aF90672.27570511811
aF90998.21870055895
aF91390.70029300729
aF91719.72571403289
aF92063.60947126144
aF92298.75152323965
aF92474.75279961436
aF92680.46029949535
aF92882.24946176805
aF93086.55680901102
aF93288.79527399746
aF93491.81740650465
aF93694.62011210705
aF93893.99557841502
aF94096.51616370869
aF94300.65632854665
aF94503.2814028429
aF94706.47071775509
aF94882.20032272222
aF95037.17841172742
aF95182.91967288102
aF95402.53465903772
aF95603.4774603887
aF95704.65416183304
aF95861.59664409074
aF95996.68002695538
aF96251.99890538138
aF96412.30593353105
aF96629.5176726227
aF96833.82501986566
aF97029.73145128058
aF97223.77797844408
aF97424.6162907925
aF97623.70963679324
aF97825.2166787587
aF98016.53604294977
aF98199.26641110695
aF98397.13723577434
aF98600.99528030507
aF98769.71367318099
aF98942.36085256485
aF99107.1504589358
aF99422.89532770107
aF99761.45014578517
aF100198.09923973033
aF100533.67612123374
aF100762.93544235267
aF101152.10473341032
aF101429.95144084639
aF101631.74060312058
aF101853.31998253275
aF102053.99111247616
aF102272.0283146902
aF102479.41808751642
aF102668.32375574126
aF103006.3143332094
aF103362.24567246526
aF103732.58604521185
aF104060.66061631167
aF104390.07264664855
aF104682.84038369003
aF104950.20684414332
aF105360.90086978399
aF105645.64385140904
aF105912.62370255102
aF106040.25701951339
aF106163.74212306298
aF106269.67307413617
aF106400.83811939551
aF106515.57749340739
aF106621.12183517075
aF106752.85112104457
aF106873.35828801349
aF107007.15645614236
aF107127.84125441744
aF107525.80851951262
aF107831.8568088144
aF108147.42404627502
aF108443.94293851979
aF108823.81270832488
aF109263.99353056555
aF109663.64306860746
aF110080.11533610485
aF110243.05548712553
aF110541.97762643387
aF110942.19140509027
aF111354.01391196286
aF111704.89843238148
aF112054.66492046934
aF112403.4805586314
aF112781.10381487677
aF113152.3323441467
aF113505.46337812653
aF113858.42722970135
aF114186.88841011099
aF114489.18554421247
aF114768.15028397931
aF115250.76409027175
aF115616.78906720207
aF115929.55599938666
aF116209.81640278896
aF116594.33593322033
aF116975.49091775971
aF117319.09255468103
aF117709.21269566297
aF118020.30780380347
aF118449.66356535019
aF118670.12491243158
aF119066.24272217651
aF119461.40968199716
aF119823.11926310824
aF120207.07455292513
aF120542.6618833282
aF120869.60797319758
aF121238.26607299891
aF121538.703302849
aF121900.24570155656
aF122231.37135153916
aF122552.29887484472
aF122835.6103571298
aF123137.7298599266
aF123356.0909780495
aF123455.55405984812
aF123783.46144854292
aF124123.1342989578
aF124480.49713755213
aF124823.5345338575
aF125194.5958807239
aF125504.57295653214
aF125892.1435658463
aF126273.86279100164
aF126673.51232904356
aF127061.95019708024
aF127416.20971229051
aF127786.45604493418
aF128177.39120014032
aF128559.9776840182
aF128936.90086394307
aF129287.23159264687
aF129687.44537130327
aF130041.69443761389
aF130436.29715681856
aF130624.63858442745
aF130818.01638197391
aF131004.11129602158
aF131250.1828976978
aF131464.05098869826
aF131691.86836157905
aF131911.59828563948
aF132141.4113984747
aF132323.02373430112
aF132537.4456170179
aF132719.62219345875
aF132895.87424344022
aF133084.7694627654
aF133204.72283801952
aF133502.92400320803
aF133832.25244234316
aF134161.53908587518
aF134480.7843362355
aF134814.29233548234
aF135121.1451901072
aF135409.8169582372
aF135702.15629036876
aF136044.89066856608
aF136375.03412192242
aF136671.55301416572
aF136977.03706285302
aF137263.21154381655
aF138146.85414298662
aF138362.65528054058
aF138569.48081275236
aF138787.84193087523
aF139008.37642025872
aF139222.79830297548
aF139445.02551420388
aF139662.81194281115
aF139881.11036753308
aF140096.91150508708
aF140316.63098024784
aF140529.94527953496
aF140747.11522302646
aF140967.7124058094
aF141179.58475685693
aF141395.38589441238
aF141597.73929730104
aF141814.0942265698
aF142036.87522951452
aF142270.05288823874
aF142489.78281230066
aF142705.01970923867
aF142927.85295668317
aF143138.30425729335
aF143328.64142485667
aF143514.40197409582
aF143672.80730239247
aF143674.1552105292
aF143676.95551580522
aF143678.073548136
aF143678.63778875046
aF143682.55612635726
aF143684.23839930253
aF143685.3564316333
aF143686.48491286373
aF143688.7209775238
aF143691.301855895
aF143690.967491085
aF143693.20355574656
aF143694.8858286918
aF143697.132342253
aF143699.37885581423
aF143700.26701233754
aF143824.14917409813
aF143956.98604340156
aF144078.0678998861
aF144204.40555321303
aF144329.95953901915
aF144469.87031381475
aF144617.28339901395
aF144763.24408707384
aF144914.36653187318
aF145059.53310351114
aF145209.19270227154
aF145358.85230103045
aF145506.2758351308
aF145657.05346622047
aF145807.83109731015
aF145957.49069607054
aF146109.6266841981
aF146265.22125831907
aF146410.96251947267
aF146559.72351280708
aF146707.13659800627
aF146857.36043738114
aF146995.80836613776
aF147141.5391783902
aF147293.44529071182
aF147427.97488186165
aF147577.63448062056
aF147725.6118064357
aF147877.50746985618
aF148026.94764171026
aF148172.90832977014
aF148325.3682338051
aF148470.87961915272
aF148618.52258015785
aF148764.59820612
aF148914.25780488038
aF149058.3063441876
aF149202.02051868624
aF149347.76177983984
aF149494.95543813275
aF149641.46991790744
aF149786.99175215623
aF149914.78180262243
aF149840.4587749056
aF149927.34138076293
aF150071.17049316532
aF150222.73179177576
aF150367.35502060008
aF150488.42642818348
aF150634.1572404374
aF150784.38107981227
aF150931.24037329663
aF151070.0226668618
aF151211.50077669893
aF151357.23158895285
aF151493.44345304795
aF151633.57365474835
aF151754.64506233323
aF151913.05039062988
aF152076.3875998615
aF152238.37690095496
aF152394.76559149782
aF152553.39034670076
aF152715.7140126042
aF152887.4625865636
aF153003.48717531122
aF153097.6631135655
aF153200.0100918419
aF153287.67636522
aF153392.48928396386
aF153477.13582515964
aF153594.84268685253
aF153685.64363031666
aF153780.15393338093
aF153867.03653923678
aF153966.24884742862
aF154067.69722028053
aF154159.29228016507
aF154258.83895316542
aF154353.00444252003
aF154479.68690955662
aF154544.36560231124
aF154418.02794898432
aF154293.81142241525
aF154181.70517127292
aF154068.2614608965
aF153922.18583493287
aF153783.73790617773
aF153648.0902826971
aF153518.6075103845
aF153378.2578817778
aF153234.4287693754
aF153093.73432705906
aF152953.60412535866
aF152825.80362599128
aF152686.79145662018
aF152556.5250167868
aF152419.4249961669
aF152290.84082927875
aF152160.45945154168
aF152038.83425224197
aF151913.26981753617
aF151785.46931816882
aF151656.55078647216
aF151519.78513066226
aF151385.26598841356
aF151254.65473486902
aF151123.83450332083
aF150994.0173661997
aF150856.12322915788
aF150720.48605457842
aF150588.75676870608
aF150473.8502122877
aF150354.46107764958
aF150219.71205959492
aF150030.81684026975
aF149925.9934726262
aF149813.88722148535
aF149717.673747675
asg6
g7
(g8
(S'S27'
p53
I0
I1
tp54
Rp55
(I3
S'|'
p56
NNNI27
I1
I0
tp57
bS'220 kV Atacama-Encuentro.C1'
p58
tp59
Rp60
sa(dp61
g2
(lp62
F366700.9070165949
aF366700.8843467338
aF366710.9724318944
aF366723.3274935093
aF366889.24707907764
aF367102.77042687964
aF367308.93474465376
aF367511.95670065517
aF367938.54120704485
aF368314.65617853636
aF368828.5083928704
aF369346.43473674916
aF369677.6718367296
aF370103.2559904894
aF370555.0282818745
aF370960.88229436567
aF371358.14770410117
aF371788.184115367
aF372258.88640700513
aF372698.49475714983
aF373116.65384470206
aF373528.0490030097
aF373967.3833970274
aF374360.86697199894
aF374693.2316367519
aF375110.4305678047
aF375542.42456312384
aF375976.46823723055
aF376386.0429725731
aF376770.1652126517
aF377175.2220568266
aF377591.3347616545
aF378004.7971910434
aF378436.5746288826
aF378816.60267912596
aF379193.110427164
aF379582.13505277084
aF379987.5375123881
aF380388.70519079734
aF380795.8419025452
aF381196.44512770977
aF381597.9439412644
aF382023.1895666979
aF382422.7307033306
aF382845.92691270635
aF417815.91352962516
aF418069.29930132907
aF418333.8654861171
aF418635.4257478644
aF419028.8812987446
aF419413.85450713895
aF419800.6370287924
aF420093.2113244673
aF420294.0112954541
aF420539.9696991546
aF420914.37847918365
aF421305.088831563
aF421690.72931567766
aF422065.1559419567
aF422479.37550985254
aF422843.6976665207
aF423211.4221856301
aF423578.5395661611
aF423825.1695239162
aF423974.40147634735
aF424137.3759730407
aF424316.7690708651
aF424456.905451939
aF424597.6842881255
aF424857.22856513597
aF425191.29957257863
aF425452.3924351344
aF425787.5800603484
aF425784.75702951336
asg4
(lp63
F179552.38738031776
aF179486.83097993946
aF179180.7826906377
aF178815.8861949393
aF178568.6965609323
aF178251.43660162677
aF177939.78770177293
aF177634.8678937001
aF177635.98592603087
aF177635.98592603087
aF177638.7862313069
aF177637.10395836167
aF177638.2324395921
aF177638.7862313069
aF177640.46850425215
aF177641.59698548258
aF177642.71501781337
aF177642.1507771974
aF177643.26880952818
aF177643.83305014414
aF177643.26880952818
aF177644.95108247342
aF177645.51532308938
aF177644.95108247342
aF177481.8437490492
aF177272.77170327774
aF177054.72405216255
aF176836.67640104739
aF176630.9689011679
aF176438.7091359522
aF176236.36618196318
aF176029.53020085176
aF175821.57618740958
aF175608.01111451717
aF175416.87983053192
aF175226.85612997628
aF175030.11378653932
aF174829.45310549706
aF174627.0997026069
aF174425.87478094868
aF174224.0856186745
aF174022.86069701627
aF173806.49531884634
aF173608.43641397313
aF173393.75330874993
aF156291.85013461672
aF156085.57839412126
aF155876.5063483498
aF155635.4815655108
aF155321.03236038095
aF155012.40319270795
aF154702.43656579938
aF154466.4586017976
aF154305.3574572275
aF154107.71650836608
aF153806.71503790154
aF153493.94810571693
aF153186.78178408288
aF152885.78031361834
aF152555.07261964752
aF152261.35403267876
aF151968.199686326
aF151671.1270023679
aF151429.53797891445
aF151283.02349913973
aF151121.8178655656
aF150948.05265385244
aF150810.72275742656
aF150669.24464758945
aF150415.89016241592
aF150086.31094967554
aF149963.21245543574
aF149805.70573256357
aF149715.99147472976
asg6
g7
(g8
(S'S23'
p64
I0
I1
tp65
Rp66
(I3
S'|'
p67
NNNI23
I1
I0
tp68
bS'220 kV Encuentro-Spence'
p69
tp70
Rp71
sa(dp72
g2
(lp73
F352900.02020996204
aF352940.9418898043
aF353345.04755462334
aF353594.48276980827
aF353891.5943428483
aF354143.2668364248
aF354428.57009032276
aF354677.4091949458
aF354981.249259294
aF355262.73694740515
aF355500.8205783698
aF355774.49479901325
aF356045.680085429
aF356321.45433159405
aF356617.49242199305
aF356889.91048851237
aF357199.2076941696
aF357525.54523547133
aF357797.8678416461
aF358037.86296018306
aF358304.58534216136
aF358581.0335995285
aF358875.16837067343
aF359195.33521446865
aF359499.5964184869
aF359760.37399341865
aF360039.95993715525
aF360316.8646573657
aF360675.6007670257
aF360897.669157268
aF361203.5749184033
aF361503.4650732237
aF361851.11854174454
aF362125.11080269236
aF362330.2531557204
aF362528.68068814324
aF362850.3929497339
aF363117.3495087549
aF363304.452169701
aF363564.4964973987
aF363783.246876596
aF364129.09175762814
aF364565.7345074024
aF364842.523970895
aF365020.1740295114
aF365232.1928611458
aF365560.6615626938
aF365826.34700225526
aF366095.82522151107
aF366400.3017257266
aF366679.91471042857
aF367011.8323749439
aF367299.2664261805
aF367566.2140706717
aF367827.9774185573
aF368096.91069690185
aF368554.30640127975
aF368991.48139784066
aF369414.70452114986
aF369818.9565578536
aF370242.1457012347
aF370670.35468344716
aF371084.61380657414
aF371509.490699871
aF371932.57694503944
aF372359.7760296115
aF372780.6409199848
aF373193.8578342688
aF373600.77564138826
aF373989.80467263097
aF374219.02324910555
aF374466.6711204522
aF374791.88491544314
aF375189.17665361334
aF375446.46092386637
aF375864.63645834196
aF376307.56350966357
aF376606.18662032345
aF376938.68437252566
aF377292.934514232
aF377661.7882791818
aF378035.5490311766
aF378405.59705651086
aF378765.3408327643
aF379104.54250998097
aF379467.7923394302
aF379822.0187069266
aF380159.36262544384
aF380571.431632943
aF380916.1541874325
aF381213.1145276921
aF381476.0289132572
aF381746.2880775565
aF382058.3836607728
aF382421.15674610715
aF382777.0934878718
aF383147.0398385795
aF383503.4128594217
aF383875.15350091504
aF384244.54157669237
aF384617.2834607824
aF384988.82764517516
aF385273.0981819667
aF385572.30743295234
aF385933.2777497568
aF386299.9792403742
aF386662.07602840057
aF387006.7880544169
aF387361.601062458
aF387729.864955341
aF388087.36679624114
aF388465.18942673365
aF388721.99355952395
aF388957.2993052574
aF389219.73192996206
aF417701.4886555183
aF418065.2660391531
aF418442.04960926156
aF418789.42904543784
aF419146.06426251354
aF419485.068661761
aF419825.38744310476
aF420145.33190488815
aF420490.08701554034
aF420820.2066863314
aF421166.18953050394
aF421517.51869599475
aF421855.60237108544
aF422190.23391414806
aF422560.7408061391
aF422916.5565702617
aF423283.28552635433
aF423605.47502475744
aF423793.2426924091
aF423925.0830358411
aF424025.865505571
aF424190.07043667696
aF424413.7432629792
aF424590.2760957368
aF424687.83583850134
aF424926.735521263
aF425233.9063018528
aF425510.77383910026
aF425771.4436092861
aF425877.27313329
aF425902.0140133961
aF425890.68809271744
asg4
(lp74
F198670.49990424613
aF198602.14319859183
aF198374.00190980217
aF198232.753675771
aF198065.71755583884
aF197923.9050811932
aF197761.3515394823
aF197621.22133778193
aF197448.02036668325
aF197292.3944458618
aF197154.31222861566
aF196999.8043401235
aF196847.69969869792
aF196691.875248771
aF196525.60189856027
aF196370.33124034817
aF196196.93174014403
aF196012.16383643227
aF195858.37692205992
aF195721.8097953555
aF195572.5159081056
aF195416.87953838301
aF195250.20912996135
aF195068.79532324043
aF194898.20657721342
aF194751.54581283455
aF194591.0402555794
aF194436.33383798326
aF194235.10891632503
aF194108.62497839393
aF193937.47199175096
aF193767.07132592832
aF193571.64554392613
aF193418.98711078573
aF193302.96252203808
aF193189.7277896653
aF193010.36196740012
aF192856.98256013988
aF192750.27839044412
aF192605.66561052095
aF192480.31015382177
aF192287.48614799013
aF192041.4145463154
aF191884.8377755667
aF191784.4969861459
aF191663.62410766652
aF191480.32949889338
aF191328.98762718923
aF191176.3291940473
aF191003.32675205413
aF190846.18574069097
aF190659.7251151328
aF190496.9834932176
aF190346.39394233373
aF190200.09888946384
aF190048.0046969379
aF189789.60339292864
aF189541.2852776927
aF189305.30731369095
aF189075.6927299627
aF188836.90401178377
aF188594.7611966155
aF188361.02974617496
aF188122.805268612
aF187881.58195666902
aF187640.7557029355
aF187405.69724215908
aF187171.60008020804
aF186941.22272675982
aF186725.97538092066
aF186514.10302987316
aF186294.73881732175
aF186004.02951363564
aF185649.0176776051
aF185417.5222918246
aF185043.66063968366
aF184650.36403301408
aF184385.04555701654
aF184087.5967126468
aF183768.10068867973
aF183439.6395082701
aF183103.68646635654
aF182773.17730148972
aF182452.91850780268
aF182150.99753411135
aF181824.77241836177
aF181508.63049138553
aF181207.44094071517
aF180840.49646056103
aF180530.51938475278
aF180266.318941086
aF180033.14128236027
aF179788.9504827348
aF179509.62003145745
aF179185.82950947492
aF178865.76924489188
aF178535.6257915355
aF178218.1673031245
aF177886.54010592838
aF177558.63271723207
aF177222.31396380952
aF176892.53622196216
aF176638.81602527967
aF176369.56876277563
aF176047.82622524735
aF175717.317060382
aF175395.0102822392
aF175087.29016889035
aF174770.5944501993
aF174440.4405479433
aF174121.3102354867
aF173783.87344973188
aF173553.14083367283
aF173344.4240505107
aF173110.32688856116
aF156437.25703096032
aF156145.22071693832
aF155842.87133833702
aF155563.95884307
aF155280.10401796974
aF155009.03864681744
aF154734.15942705944
aF154476.54179057095
aF154203.01047895112
aF153936.7620508286
aF153660.20055812685
aF153379.04154929856
aF153106.3983942036
aF152838.46769313433
aF152544.75955506676
aF152257.43569507197
aF151964.0619218144
aF151704.76201238064
aF151520.90316299303
aF151387.28262616732
aF151289.97201782704
aF151129.66498967883
aF150911.06354684886
aF150736.73409451975
aF150639.7682998891
aF150408.04303830268
aF150113.7706596206
aF149994.38152498097
aF149883.3933061709
aF149837.6584696296
aF149825.66313210505
aF149713.7554100682
asg6
g7
(g8
(S'S32'
p75
I0
I1
tp76
Rp77
(I3
S'|'
p78
NNNI32
I1
I0
tp79
bS'220 kV Encuentro-Sierra Gorda.C1'
p80
tp81
Rp82
sa(dp83
g2
(lp84
F352900.02020996204
aF352940.9418898043
aF353345.04755462334
aF353594.48276980827
aF353891.5943428483
aF354143.2668364248
aF354428.57009032276
aF354677.4091949458
aF354981.249259294
aF355262.73694740515
aF355500.8205783698
aF355774.49479901325
aF356045.680085429
aF356321.45433159405
aF356617.49242199305
aF356889.91048851237
aF357199.2076941696
aF357525.54523547133
aF357797.8678416461
aF358037.86296018306
aF358304.58534216136
aF358581.0335995285
aF358875.16837067343
aF359195.33521446865
aF359499.5964184869
aF359760.37399341865
aF360039.95993715525
aF360316.8646573657
aF360675.6007670257
aF360897.669157268
aF361203.5749184033
aF361503.4650732237
aF361851.11854174454
aF362125.11080269236
aF362330.2531557204
aF362528.68068814324
aF362850.3929497339
aF363117.3495087549
aF363304.452169701
aF363564.4964973987
aF363783.246876596
aF364129.09175762814
aF364565.7345074024
aF364842.523970895
aF365020.1740295114
aF365232.1928611458
aF365560.6615626938
aF365826.34700225526
aF366095.82522151107
aF366400.3017257266
aF366679.91471042857
aF367011.8323749439
aF367299.2664261805
aF367566.2140706717
aF367827.9774185573
aF368096.91069690185
aF368554.30640127975
aF368991.48139784066
aF369414.70452114986
aF369818.9565578536
aF370242.1457012347
aF370670.35468344716
aF371084.61380657414
aF371509.490699871
aF371932.57694503944
aF372359.7760296115
aF372780.6409199848
aF373193.8578342688
aF373600.77564138826
aF373989.80467263097
aF374219.02324910555
aF374466.6711204522
aF374791.88491544314
aF375189.17665361334
aF375446.46092386637
aF375864.63645834196
aF376307.56350966357
aF376606.18662032345
aF376938.68437252566
aF377292.934514232
aF377661.7882791818
aF378035.5490311766
aF378405.59705651086
aF378765.3408327643
aF379104.54250998097
aF379467.7923394302
aF379822.0187069266
aF380159.36262544384
aF380571.431632943
aF380916.1541874325
aF381213.1145276921
aF381476.0289132572
aF381746.2880775565
aF382058.3836607728
aF382421.15674610715
aF382777.0934878718
aF383147.0398385795
aF383503.4128594217
aF383875.15350091504
aF384244.54157669237
aF384617.2834607824
aF384988.82764517516
aF385273.0981819667
aF385572.30743295234
aF385933.2777497568
aF386299.9792403742
aF386662.07602840057
aF387006.7880544169
aF387361.601062458
aF387729.864955341
aF388087.36679624114
aF388465.18942673365
aF388721.99355952395
aF388957.2993052574
aF389219.73192996206
aF417701.4886555183
aF418065.2660391531
aF418442.04960926156
aF418789.42904543784
aF419146.06426251354
aF419485.068661761
aF419825.38744310476
aF420145.33190488815
aF420490.08701554034
aF420820.2066863314
aF421166.18953050394
aF421517.51869599475
aF421855.60237108544
aF422190.23391414806
aF422560.7408061391
aF422916.5565702617
aF423283.28552635433
aF423605.47502475744
aF423793.2426924091
aF423925.0830358411
aF424025.865505571
aF424190.07043667696
aF424413.7432629792
aF424590.2760957368
aF424687.83583850134
aF424926.735521263
aF425233.9063018528
aF425510.77383910026
aF425771.4436092861
aF425877.27313329
aF425902.0140133961
aF425890.68809271744
asg4
(lp85
F198670.49990424613
aF198602.14319859183
aF198374.00190980217
aF198232.753675771
aF198065.71755583884
aF197923.9050811932
aF197761.3515394823
aF197621.22133778193
aF197448.02036668325
aF197292.3944458618
aF197154.31222861566
aF196999.8043401235
aF196847.69969869792
aF196691.875248771
aF196525.60189856027
aF196370.33124034817
aF196196.93174014403
aF196012.16383643227
aF195858.37692205992
aF195721.8097953555
aF195572.5159081056
aF195416.87953838301
aF195250.20912996135
aF195068.79532324043
aF194898.20657721342
aF194751.54581283455
aF194591.0402555794
aF194436.33383798326
aF194235.10891632503
aF194108.62497839393
aF193937.47199175096
aF193767.07132592832
aF193571.64554392613
aF193418.98711078573
aF193302.96252203808
aF193189.7277896653
aF193010.36196740012
aF192856.98256013988
aF192750.27839044412
aF192605.66561052095
aF192480.31015382177
aF192287.48614799013
aF192041.4145463154
aF191884.8377755667
aF191784.4969861459
aF191663.62410766652
aF191480.32949889338
aF191328.98762718923
aF191176.3291940473
aF191003.32675205413
aF190846.18574069097
aF190659.7251151328
aF190496.9834932176
aF190346.39394233373
aF190200.09888946384
aF190048.0046969379
aF189789.60339292864
aF189541.2852776927
aF189305.30731369095
aF189075.6927299627
aF188836.90401178377
aF188594.7611966155
aF188361.02974617496
aF188122.805268612
aF187881.58195666902
aF187640.7557029355
aF187405.69724215908
aF187171.60008020804
aF186941.22272675982
aF186725.97538092066
aF186514.10302987316
aF186294.73881732175
aF186004.02951363564
aF185649.0176776051
aF185417.5222918246
aF185043.66063968366
aF184650.36403301408
aF184385.04555701654
aF184087.5967126468
aF183768.10068867973
aF183439.6395082701
aF183103.68646635654
aF182773.17730148972
aF182452.91850780268
aF182150.99753411135
aF181824.77241836177
aF181508.63049138553
aF181207.44094071517
aF180840.49646056103
aF180530.51938475278
aF180266.318941086
aF180033.14128236027
aF179788.9504827348
aF179509.62003145745
aF179185.82950947492
aF178865.76924489188
aF178535.6257915355
aF178218.1673031245
aF177886.54010592838
aF177558.63271723207
aF177222.31396380952
aF176892.53622196216
aF176638.81602527967
aF176369.56876277563
aF176047.82622524735
aF175717.317060382
aF175395.0102822392
aF175087.29016889035
aF174770.5944501993
aF174440.4405479433
aF174121.3102354867
aF173783.87344973188
aF173553.14083367283
aF173344.4240505107
aF173110.32688856116
aF156437.25703096032
aF156145.22071693832
aF155842.87133833702
aF155563.95884307
aF155280.10401796974
aF155009.03864681744
aF154734.15942705944
aF154476.54179057095
aF154203.01047895112
aF153936.7620508286
aF153660.20055812685
aF153379.04154929856
aF153106.3983942036
aF152838.46769313433
aF152544.75955506676
aF152257.43569507197
aF151964.0619218144
aF151704.76201238064
aF151520.90316299303
aF151387.28262616732
aF151289.97201782704
aF151129.66498967883
aF150911.06354684886
aF150736.73409451975
aF150639.7682998891
aF150408.04303830268
aF150113.7706596206
aF149994.38152498097
aF149883.3933061709
aF149837.6584696296
aF149825.66313210505
aF149713.7554100682
asg6
g7
(g8
(S'S32'
p86
I0
I1
tp87
Rp88
(I3
S'|'
p89
NNNI32
I1
I0
tp90
bS'220 kV Encuentro-Sierra Gorda.C2'
p91
tp92
Rp93
sa(dp94
g2
(lp95
F426653.34592977446
aF426598.54816934513
aF426710.6276219906
aF427027.6322455015
aF427321.90168973804
aF427723.74417271186
aF428131.7974736104
aF428531.5419721785
aF428938.4792998303
aF429380.0877032997
aF429783.15355015686
aF430178.91644081846
aF430586.86122192536
aF431002.32484495454
aF431420.3625324145
aF431832.9371669325
aF432284.14943370223
aF432690.5838941317
aF433110.9246653593
aF433507.2928210213
aF433890.02845151257
aF434285.75637469394
aF434699.44135372434
aF435064.9603717001
aF435443.87781780167
aF435841.8803465632
aF436261.7086912808
aF436674.7327372371
aF437098.5674342341
aF437501.50456518214
aF437922.5075830738
aF438325.46891530324
aF438722.4062288627
aF439152.2336856043
aF439558.14231693605
aF439993.58813795494
aF440304.11070946883
aF440644.3540715999
aF441050.1681466624
aF441448.1428669556
aF441865.171950229
aF442214.34980491456
aF442505.336768528
aF442904.3466297863
aF443219.95584873576
aF443369.6931984974
aF443700.3172945664
aF443996.80383822974
aF444326.98629370145
aF444718.87872747425
aF445129.1452227095
aF445549.5626623039
aF445954.1575746131
aF446353.3290086482
aF446792.72742049117
aF447221.05110007524
aF447619.017996246
aF448024.2707103137
aF448444.57785266405
aF448862.2579394593
aF449300.47085358994
aF449695.7248640042
aF450057.76464896183
aF450515.23542299075
aF450901.406075981
aF451309.49526450364
aF451731.54209513776
aF452147.4563113018
aF452563.8669697647
aF452959.64880948374
aF453363.7850423665
aF453769.07207918353
aF454146.2816492482
aF454497.74899052316
aF454813.2187460349
aF455123.74544906244
aF455156.9280542657
aF455552.09331699833
aF455963.963234297
aF456386.1574778976
aF456777.95637616795
aF457190.493415982
aF457608.55314244376
aF458040.80115543725
aF458448.30219339626
aF458875.98624266963
aF459186.5128749381
aF459491.466989066
aF459803.6493310956
aF460163.4993882361
aF460512.0626095305
aF460808.1015811409
aF461090.0737776356
aF461403.89242185606
aF461680.1982612917
aF461871.9330528085
aF462183.0211898121
aF462454.8747346606
aF462797.9128466197
aF463118.5249958136
aF463376.90043848846
aF463658.87245690497
aF463921.2044917913
aF464193.0285340231
aF464446.40764591563
aF464846.0294934362
aF465047.8529877076
aF465337.6354057994
aF465583.179269833
aF465847.15810117126
aF466238.9281958402
aF466641.41125717293
aF467000.17290365184
aF467401.51059848815
aF467638.0016288464
aF467726.0288313506
aF468070.1929882085
aF468469.87094431
aF468874.5616208459
aF469302.77822617814
aF469778.6624067002
aF470251.77362819156
aF470601.5138330804
aF470899.70866517676
aF471206.3091572295
aF471535.9299689154
aF471954.0547219566
aF472422.09157757275
aF472679.3714944143
aF473030.837736032
aF473352.58524380066
aF473692.78980859043
aF474010.6062877332
aF474291.98627719795
aF474592.99459726224
aF474892.3086775448
aF475218.5668399306
aF475584.5552878827
aF475943.8827352002
aF476305.3633882231
aF476660.19479882764
aF476949.9591656397
aF477265.56147868605
aF477660.7338125296
aF478016.6946428474
aF478365.30937821185
aF478747.0278955577
aF479157.35733759776
aF479530.0762902675
aF479826.0349738877
aF480098.46791528584
aF480491.90526491636
aF480958.2873119726
aF481283.4211257603
aF481626.428900138
aF481930.2033318551
aF482257.5792552605
aF482707.08863513265
aF483217.74913404696
aF483470.52488448424
aF483617.9962049015
aF483787.7997675701
aF483944.19028410874
aF484160.5805056216
aF484437.4518008069
aF484699.7489120723
aF485039.4777546944
aF485357.29556591157
aF485608.38409044547
aF485849.4114528764
aF486106.1283577406
aF486330.33045126824
aF486526.54129153583
aF486753.5048326021
aF486774.79937480064
aF487068.5442037629
aF487370.10152653605
aF487693.53147647064
aF488047.7525703651
aF488341.4855200262
aF488650.3076700941
aF488993.35024570255
aF489284.8840388069
aF489572.3973484123
aF489949.0373400636
aF490355.44959065225
aF490734.8941897801
aF491085.2475235956
aF491439.47309340537
aF491784.75065859454
aF492102.5933871912
aF492449.02631026367
aF492837.44024772244
aF493261.23161259154
aF493670.91154986573
aF494024.0686182631
aF494382.24397337204
aF494667.01331316633
aF494994.311414076
aF495301.53386734286
aF495713.45579456724
aF496076.16958504356
aF496590.1182824741
aF497016.7007622514
aF497432.07530807843
aF497839.019410226
aF498266.0749155041
aF498591.7716608085
aF498922.47520769853
aF499195.4523103554
aF499465.59227386257
aF499942.60039222846
aF500303.60118398024
aF500579.93817228545
aF501016.0029027499
aF501148.87230349844
aF501506.5195942144
aF501640.4751469395
aF501836.635603216
aF502035.0301555041
aF502230.6801248044
aF502396.62505698483
aF502636.5038582166
aF502977.8572610654
aF503307.4489470287
aF503644.8551828731
aF504051.3066254202
aF504409.4294660706
aF504795.68089367775
aF505197.57535865996
aF505605.63972503645
aF505991.8627718836
aF506357.86396956537
aF506723.35135537153
aF507087.12281803833
aF507425.09111316036
aF507750.2225351352
aF508098.8721533329
aF508465.9831298515
aF508833.7149320487
aF509238.4080443783
aF509648.0674440642
aF510051.7293787757
aF510456.9875990534
aF510861.57303922484
aF511248.8958732099
aF511594.25837448845
aF511977.688900908
aF512389.0877762232
aF512749.4421653021
aF513105.9925669846
aF513517.41916724807
aF513920.9966477463
aF514338.0514237317
aF514746.0780711635
aF515125.0214206665
aF515480.3633667482
aF515865.94847599743
aF516235.9502616883
aF516575.09904561425
aF516827.89528182615
aF517216.7833458134
aF517554.89005930396
aF517927.548251342
aF518310.47093577776
aF518659.0860328111
aF518956.16252336884
aF519290.2703006463
aF519583.97863578936
aF519957.8479602239
aF520316.5874389829
aF520644.4596479605
aF520953.870607052
aF521168.48924448714
aF521605.78888908355
aF522022.7039496843
aF522411.2329268148
aF522824.9173767287
aF523237.46899522794
aF523660.5828969809
aF524080.46478232136
aF524496.3180638249
aF524888.2113846052
aF525226.73216093
aF525503.0965833999
aF525843.2543294742
aF526194.2004950624
aF526580.9025427625
aF527000.7882588455
aF527428.4955358235
aF527825.8731467822
aF528235.6510251751
aF528651.5224826187
aF529058.4074639524
aF529461.4789049015
aF529837.5353654497
aF530183.4597709603
aF530536.4784838106
aF530913.2620078009
aF531324.0398899922
aF531723.1406700378
aF532127.2685822533
aF532525.8899574792
aF532903.0878300178
aF533217.5735655017
aF533523.5957556348
aF533826.8641686896
aF534123.8569809725
aF534499.4928350346
aF534894.0975403567
aF535297.1157761207
aF535697.2978684888
aF536076.7670748685
aF536456.8331479817
aF536832.9204741637
aF537186.0769979372
aF537533.596446705
aF537836.8359180437
aF538105.3071410474
aF538410.2293496318
aF538686.5630356823
aF539033.4453596119
aF539355.2931555095
aF539703.3836043496
aF540112.0026420285
aF540490.9218019512
aF540865.3475046814
aF541263.3203711286
aF541660.0503969886
aF542010.973515512
aF542318.783266956
aF542689.2886442053
aF543074.2807703242
aF543457.0891600316
aF543820.4171051267
aF544128.7088011173
aF544453.1700176569
aF544819.1887046234
aF545211.6412325129
aF545605.6536647184
aF545973.9445784916
aF546316.874355189
aF546691.8630023217
aF547070.8106770562
aF547437.44390555
aF547764.1713434677
aF548103.3769308813
aF548470.5140122208
aF548861.1989969616
aF549259.0915697273
aF549629.1165866521
aF549999.5367459147
aF550369.5676397523
aF550745.6747013517
aF551121.2241868796
aF551498.9388772896
aF551893.6308912742
aF552256.2583643543
aF552526.9941270491
aF552836.3113864879
aF553178.8750897408
aF553580.7756670853
aF553974.8468010118
aF554339.1652233507
aF554705.7385623287
aF555098.6739680939
aF555503.8438609727
aF555889.5688714436
aF556268.3960168334
aF556644.0333763636
aF557013.3560951734
aF557340.7574289329
aF557633.2962096715
aF557908.6036762423
aF558272.3766355915
aF558625.4793436001
aF558966.837313497
aF559331.1806934583
aF559745.4307205989
aF560143.8464395278
aF560545.7689791885
aF560916.3376636151
aF561162.968269778
aF561508.831752385
aF561841.1388062779
aF562241.9678072543
aF562614.7157878419
aF562974.5789224701
aF563256.4601232368
aF563529.4240702018
aF563747.1963572577
aF563986.8209599513
aF564166.0613139262
aF564348.8041015742
aF564560.1168453116
aF564827.047340434
aF565062.905906884
aF565408.1958451909
aF565737.3129042764
aF566051.5006761351
aF566373.1269950471
aF566669.3692384977
aF566911.0675780564
aF567147.2101126472
aF567393.3903244012
aF567611.5934937634
aF567922.7013027878
aF568166.5082524591
aF568472.0090834447
aF568815.6054895795
aF569218.6061749747
aF569666.6133255502
aF570049.8616114939
aF570431.7244946859
aF570806.013056573
aF571101.5499394317
aF571448.9644505009
aF571774.1798797292
aF572159.7075255783
aF572527.970451578
aF572809.3434660523
aF573148.0165663818
aF573444.4184428016
aF573716.3878338803
aF574030.7276927745
aF574341.2572700791
aF574766.670751824
aF575157.3546137838
aF575530.687115531
aF575896.8172146599
aF576231.8700361857
aF576556.5561958877
aF576861.9037960288
aF577175.2560477876
aF577522.7570543867
aF577787.3215132495
aF578052.0048512067
aF578386.5223651659
aF578784.6278778696
aF579191.4602885721
aF579591.7838582187
aF579977.2881692527
aF580414.5156666669
aF580763.7279707217
aF581038.464280976
aF581364.5784850246
aF581660.5330769
aF582010.8937987532
aF582402.695034551
aF582807.9187514065
aF583228.4316094499
aF583591.6426404216
aF584037.7111372589
aF584343.7836776269
aF584597.1364013478
aF584863.3561690771
aF585256.3097294904
aF585576.370946499
aF585824.1254317597
aF586108.3056295956
aF586449.6397848721
aF586794.477860685
aF587143.0879818527
aF587386.8949819724
aF587751.2013073005
aF588134.5954567227
aF588497.2868693229
aF588836.403705297
aF589176.0503245164
aF589543.7499492741
aF589912.045209982
aF590278.0631354661
aF590574.5539586726
aF590529.6609128444
aF590513.7314542341
aF590499.6240895386
asg4
(lp96
F149642.8073771445
aF149487.75614583868
aF149267.47243006196
aF149180.38084619952
aF149099.10929979538
aF148992.16480539402
aF148880.97805747695
aF148773.21854885435
aF148664.09023429418
aF148544.83693535908
aF148437.07742673496
aF148330.01799443137
aF148218.6118196095
aF148243.69962919
aF148268.4948695621
aF148292.60048251634
aF148318.94216013065
aF148342.91193738184
aF148368.27141836841
aF148393.9130196652
aF148417.6006766077
aF148438.89553538477
aF148463.001148339
aF148485.2782037438
aF148507.13730313684
aF148532.92518903632
aF148557.58459370537
aF148582.39028297714
aF148608.03188427392
aF148631.15530060045
aF148656.24311018092
aF148681.03835055302
aF148703.69156636798
aF148729.28092316198
aF148753.4910251188
aF148779.58192912635
aF148753.37608721657
aF148727.8494238235
aF148695.6772598512
aF148664.22606999724
aF148631.71954121641
aF148604.24938237018
aF148581.12596604365
aF148548.75527296588
aF148524.6601089113
aF148706.8784809553
aF148653.57864060943
aF148604.81362298614
aF148551.0017865256
aF148485.2782037438
aF148416.3363596727
aF148347.94830731794
aF148280.8350207978
aF148216.79371095973
aF148144.6231567027
aF148073.85275508216
aF148008.83969751903
aF147942.1339181095
aF147873.89215035742
aF147804.80402168364
aF147733.19770804106
aF147626.0024400329
aF147530.85475405207
aF147409.63706186446
aF147307.6244483966
aF147197.76471081548
aF147084.5299784442
aF146974.67024086457
aF146877.28649022215
aF146772.32728687554
aF146665.26785457044
aF146556.52614932158
aF146455.06732756854
aF146362.0198705447
aF146278.08385456758
aF146195.13003521672
aF146075.5946159744
aF146084.00598070212
aF146097.03575935567
aF146108.6653853712
aF146117.63054181522
aF146129.22882112878
aF146141.30774985653
aF146153.33443408302
aF146164.5356551871
aF146176.8758064213
aF146360.1599662933
aF146537.84351561472
aF146725.06691089284
aF146938.62153488558
aF147147.4428070503
aF147324.8233382622
aF147492.42369880882
aF147679.02016007152
aF147842.4932050062
aF147956.4802581978
aF148143.69320457624
aF148304.00023272593
aF148509.71818150656
aF148702.53173843707
aF148853.67508103722
aF149020.3454894589
aF149176.18038828546
aF149339.0891926057
aF149488.7487913646
aF149424.85376613223
aF149570.2188668757
aF149678.96057212455
aF149772.57226976435
aF149872.34881857067
aF150019.00958294957
aF150169.42150253025
aF150304.5048853949
aF150455.29296538423
aF150545.89537974287
aF150706.9651776125
aF150738.91791467852
aF150778.70732695813
aF150818.5071881374
aF150860.5431139782
aF150908.75433988668
aF150950.790265726
aF150986.66134040031
aF151015.8137721903
aF151044.95575508065
aF151230.48642851383
aF151459.79799413405
aF151722.68187636606
aF151862.81207806795
aF152058.43638917414
aF152236.68417911005
aF152425.35997152745
aF152601.9254885181
aF152758.8679707758
aF152923.88745295122
aF153091.82217830786
aF153271.40742747934
aF153474.3146220843
aF153670.50317380644
aF153875.42700616518
aF154071.05131727137
aF154239.2054695328
aF154415.43662171345
aF154553.10088294782
aF154676.0844392854
aF154799.39191153034
aF154930.5569567882
aF155072.9336720498
aF155200.73417141716
aF155304.19918202434
aF155398.5945471849
aF155533.45850314328
aF155695.667231143
aF155810.57378756136
aF155927.72685753944
aF155976.27244825495
aF156024.69265216857
aF156095.6615828946
aF156177.16300510467
aF156214.48647691825
aF156236.0112115013
aF156497.2232696877
aF156738.24805252667
aF157069.50953821233
aF157073.9921164336
aF157082.18405425653
aF157089.1325729453
aF157099.21576171863
aF156821.766112492
aF156560.5540543056
aF156276.9291050113
aF156032.550225183
aF155820.66742523434
aF155572.69412370806
aF155266.08159379032
aF155087.84425275406
aF154904.5496439824
aF154708.59096806622
aF154495.9245005968
aF154318.4708270828
aF154131.0280048984
aF154011.63887026027
aF153912.0921972599
aF153813.99792139884
aF153684.84951389473
aF153546.63146094553
aF153416.36502111217
aF153297.75955399478
aF153176.45827060397
aF153058.1871682951
aF152949.6753388522
aF152830.83999592738
aF152697.77325081796
aF152552.26186547033
aF152414.1483015237
aF152292.7425291303
aF152239.48448438608
aF152196.8843179308
aF152146.21760045594
aF152103.28306919063
aF152039.15816815084
aF151986.12999921257
aF151908.55736350894
aF151845.4355568962
aF151649.25745407373
aF151459.79799413405
aF151260.1717542193
aF151106.05047503847
aF150951.1559772365
aF150821.87173402938
aF150701.16603795497
aF150472.4709574505
aF150391.9517318667
aF150234.24647988906
aF149979.77396238476
aF149902.60883379178
aF149879.0674614535
aF150076.9382861209
aF150371.01213569895
aF150672.57784677946
aF150966.48451395254
aF151215.3564209033
aF151254.3935123626
aF151303.18987668637
aF151353.63716725493
aF151406.33097138468
aF151465.86880519916
aF151520.0672509695
aF151575.72854278027
aF151637.38750335257
aF151699.04646392487
aF151757.8946703215
aF151813.95302034175
aF151875.61198091405
aF151937.26049258668
aF151994.43687493773
aF152049.9309843435
aF152107.66115840935
aF152168.75587836717
aF152232.0971118847
aF152302.16743718623
aF152370.37785823634
aF152438.36885238165
aF152508.9929693965
aF152575.53156640253
aF152641.10886458014
aF152699.01666995214
aF152765.1582087457
aF152834.1000528168
aF152893.34531742288
aF152955.73570101615
aF153025.79557741652
aF153093.065597442
aF153162.5716821261
aF153233.1957991424
aF153298.20885670703
aF153357.0675120033
aF153422.4776277774
aF153485.98604369996
aF153543.16242605099
aF153585.1983518918
aF153766.4449762077
aF153924.93389570763
aF154097.382545986
aF154281.42947557944
aF154445.6548413344
aF154581.8667054295
aF154737.6911553564
aF154873.9030194515
aF155047.10399055018
aF155214.14011048086
aF155366.60001451726
aF155510.64855382446
aF155610.22657352532
aF155622.2010132505
aF155632.6499135343
aF155645.1781449743
aF155659.1901202541
aF155670.40179025783
aF155683.66144471732
aF155696.74346787215
aF155708.3208493864
aF155720.8490808264
aF155731.49651021566
aF155739.34363432892
aF155749.80298351237
aF155759.5204607752
aF155772.21587462022
aF155784.74410606024
aF155798.2022896252
aF155808.84971901448
aF155822.30790257943
aF155834.073364298
aF155846.20453752705
aF155858.17897725225
aF155870.87439109577
aF155784.1903143454
aF155695.99114705186
aF155602.57797851754
aF155502.04910889093
aF155402.2725600846
aF155300.8241872327
aF155201.24616753036
aF155108.76295112248
aF155031.40974232368
aF154955.7388064716
aF154879.50363000354
aF154804.76264627496
aF154712.4675100714
aF154613.25520188105
aF154515.16092601998
aF154417.63089077338
aF154320.66509614274
aF154227.05339850293
aF154132.8879091498
aF154040.95848445527
aF153954.6401192139
aF153878.96918336034
aF153814.22779720477
aF153738.28518994513
aF153669.2806524731
aF153583.34889654155
aF153502.8087731569
aF153415.9261672996
aF153315.03158616248
aF153218.61958324668
aF153127.25439916807
aF153027.47785036176
aF152929.78063271166
aF152845.70878103148
aF152768.5227546377
aF152677.7113622739
aF152549.74368050156
aF152424.1896946969
aF152304.96774246226
aF152202.39088837992
aF152095.16427367128
aF151975.77513903167
aF151848.1418220693
aF151716.97677681144
aF151594.78733689728
aF151481.39587102065
aF151360.31401453612
aF151235.32426934593
aF151115.53807649534
aF151007.19342945595
aF150894.69012010415
aF150774.73674485003
aF150646.38245376936
aF150514.48598549052
aF150394.14600092662
aF150272.34317032224
aF150149.75667219714
aF150028.1210239963
aF149903.6850705209
aF149780.7642075873
aF149650.3305853489
aF149531.50569132523
aF149440.14050724663
aF149340.1967760353
aF149226.57543435274
aF149094.85659738007
aF148964.8095844515
aF148844.8562091974
aF148726.03131517372
aF148595.98430224662
aF148463.534042253
aF148335.34693357584
aF148210.74379769544
aF148085.91078600913
aF147966.35446896596
aF147859.46221906587
aF147762.31879313057
aF147672.80306440222
aF147553.4139297641
aF147436.27130868568
aF147321.9185439836
aF147205.89395523598
aF147066.88178586634
aF146937.23183114873
aF146805.51299417607
aF146681.80846372017
aF146603.3058758901
aF146486.1841526125
aF146378.95753790386
aF146247.39543443505
aF146125.2059945209
aF146005.81685988125
aF145729.30761168076
aF145456.35098957657
aF145239.99606030632
aF145003.17173538284
aF144812.23898050308
aF144618.5790626494
aF144393.24852803693
aF144110.54308196795
aF143859.63363946113
aF143615.8085513461
aF143383.2578266373
aF143160.17380558603
aF142933.08785572622
aF142723.45156933877
aF142422.80536148357
aF142129.3062014211
aF141822.76681380547
aF141551.39842454361
aF141550.8446328288
aF141553.08069749034
aF141551.39842454361
aF141551.39842454361
aF141549.98782300594
aF141550.0714142077
aF141513.55250771716
aF141477.76502424612
aF141444.6106636476
aF141254.68100319486
aF141030.38490970992
aF140821.9502468565
aF140573.55898931698
aF140334.21647942474
aF140149.23959770633
aF139935.20432430087
aF139744.54324082867
aF139568.06131504127
aF139366.1885615653
aF139165.52788052155
aF138996.80948764415
aF138839.8565564868
aF138695.80801717812
aF138550.15034722775
aF138417.22988672106
aF138288.948737941
aF138167.22949853988
aF138039.99323978848
aF137903.2275839786
aF137796.73239228944
aF137690.87458351688
aF137554.57912822004
aF137495.2502724107
aF137434.62575296592
aF137374.74310544177
aF137314.68282661296
aF137247.41280658747
aF137193.60097012695
aF137153.89514905057
aF137100.56396200423
aF137057.39955493298
aF137001.90544552723
aF136945.29330379216
aF136884.1985838343
aF136816.45836329725
aF136763.7645591675
aF136694.73912389466
aF136646.53834688733
aF136781.05748913603
aF136634.2086445528
aF136422.8900852201
aF136250.8071464522
aF136117.4060365328
aF135962.69961893666
aF135777.72273721825
aF135593.69670542565
aF135402.2519544327
aF135270.2196504508
aF135322.34921396463
aF135381.76166097718
aF135432.7731921602
aF135479.2916962223
aF135641.39593521945
aF135821.07522449383
aF135997.83927059
aF136176.64085223922
aF136319.56091031746
aF136407.24808149636
aF136439.93224158185
aF136471.5819605413
asg6
g7
(g8
(S'S27'
p97
I0
I1
tp98
Rp99
(I3
S'|'
p100
NNNI27
I1
I0
tp101
bS'220 kV Crucero-Lagunas N\xc2\xb02'
p102
tp103
Rp104
sa(dp105
g2
(lp106
sg4
(lp107
sg6
g7
(g8
(S'S24'
p108
I0
I1
tp109
Rp110
(I3
S'|'
p111
NNNI24
I1
I0
tp112
bS'220 kV Central Tocopilla'
p113
tp114
Rp115
sa(dp116
g2
(lp117
F426592.6652746345
aF426564.0185947991
aF426546.05370127363
aF426527.59195722174
aF426508.2720294823
aF426490.0360736679
aF426472.0710959886
aF426448.55060720444
aF426426.667374949
aF426404.24211167684
aF426382.9459862597
aF426362.2370011299
aF426338.99864197057
aF426319.6333165504
aF426296.9820661284
aF426272.524099234
aF426249.00331325457
aF426229.3555823164
aF426208.9625667664
aF426184.5496309018
aF426164.33722713636
aF426140.0145572466
aF426116.69682786614
aF426097.0715161138
aF426075.2442563856
aF426050.8875734629
aF426029.28608888574
aF426008.881522994
aF425985.86848344794
aF425962.55052644387
aF425941.027965107
aF425919.95705554634
aF425898.42314411
aF425876.57302566525
aF425850.2173386896
aF425839.7947476832
aF425826.910473451
aF425805.6022773087
aF425871.186712753
aF425933.4058547672
aF425999.317226531
aF426065.1266958569
aF426128.80172606
aF426192.7249198253
aF426257.1898605968
aF426326.1373585216
aF426390.5678796205
aF426458.41950594867
aF426529.5792774968
aF426596.8431463428
aF426662.0855508875
aF426724.3015769408
aF426791.5420337147
aF426856.106152548
aF426920.6022596038
aF426984.38675353397
aF427051.47931732284
aF427116.6972617032
aF427177.7598021277
aF427244.86283571646
aF427307.8104837779
aF427357.52483465755
aF427420.3026695
aF427485.327145861
aF427531.2810769775
aF427588.09666157514
aF427753.450077021
aF427911.31609328464
aF428089.006622863
aF428274.7338818279
aF428506.22941076197
aF428697.14518739004
aF428898.0389322373
aF429085.22435450787
aF429229.66495606164
aF429418.1786161978
aF429616.0715117119
aF429809.7849092409
aF429983.5706421132
aF430169.6368926242
aF430367.4978069053
aF430543.51257913094
aF430738.0386841004
aF430941.70603630645
aF431166.80722428067
aF431371.9590904834
aF431582.3572098515
aF431778.5637190142
aF431983.7189417756
aF432180.25910160923
aF432384.48354976485
aF432561.41273132525
aF432772.93503949046
aF432930.4349267329
aF433108.4866962312
aF433295.89319138834
aF433505.87070800876
aF433698.1256849775
aF433891.7326884479
aF434092.36862545414
aF434317.72973892745
aF434514.4440756021
aF434739.7991844509
aF434915.02049785946
aF435117.59586026845
aF435307.9804835012
aF435507.1652668235
aF435791.7073902022
aF436056.47345703933
aF436239.0039618695
aF436333.70458638854
aF436487.49033424444
aF436628.207274606
aF436804.5699906028
aF436941.8988677622
aF437117.9082893599
aF437277.06886469526
aF437492.33086049836
aF437701.9481236604
aF437831.44974446716
aF437971.02641619416
aF438099.93910645135
aF438269.75247366447
aF438425.57297415705
aF438608.86602101894
aF438795.1807534429
aF438952.4966975022
aF439122.50402710587
aF439294.980401088
aF439469.8354801163
aF439644.7450439604
aF439819.8219121089
aF439993.385062058
aF440176.87435773294
aF440318.4949642047
aF440450.2090044706
aF440569.0158237247
aF440718.9022585163
aF440884.06224923395
aF441034.8143668906
aF441144.70468547475
aF441382.00245623384
aF441467.7266027848
aF441635.6877325708
aF441799.0219952604
aF442026.5748794433
aF442129.54340608465
aF442296.741754598
aF442590.49084620085
aF442907.1778911683
aF443046.1910767099
aF443242.176847782
aF443466.9455825873
aF443717.4731948483
aF443974.2229606854
aF444188.3113998892
aF444483.36771406047
aF444781.9374753828
aF445100.28390280483
aF445196.3302026144
aF445407.4473146945
aF445602.14084627014
aF445806.56479831645
aF445913.8282410088
aF445954.7101850193
aF446052.27381505445
aF446196.8870282071
aF446159.69348792266
asg4
(lp118
F149646.43314554292
aF149492.10288835544
aF149110.38366320156
aF148664.2051721964
aF148212.00811463041
aF147769.04788491304
aF147358.1866768674
aF146915.93697237017
aF146474.80530020373
aF146023.026198648
aF145554.98860825133
aF145116.6572413609
aF144653.80230550448
aF144217.58161647074
aF143747.443797117
aF143266.9302197816
aF142793.8562594488
aF142366.1723219462
aF141892.11616498715
aF141436.2619923208
aF140989.5297096023
aF140525.55674141512
aF140082.6069605989
aF139622.41649431546
aF139162.22602803202
aF138694.3347222395
aF138236.2444849116
aF137773.38954905517
aF137316.00983694888
aF136841.66111077997
aF136381.05268848475
aF135922.96245115832
aF135462.9182694791
aF135015.05750552868
aF134441.64275577362
aF134213.37608018206
aF133996.44646139618
aF133543.54932751117
aF133094.5705312315
aF132641.10915672904
aF132188.9016502619
aF131734.7401994419
aF131274.13177714671
aF130822.9064673058
aF130361.59796869158
aF129905.3362889146
aF129444.02779030037
aF128985.51959696217
aF128485.52926949946
aF127996.75061203902
aF127545.38946649506
aF127099.77521610736
aF126649.11414688094
aF126190.75223814693
aF125739.39109260298
aF125296.5771474898
aF124835.40448458011
aF124371.14939608568
aF123936.74681570173
aF123470.53778285447
aF123019.17663731052
aF122679.6396225987
aF122247.47310687629
aF121782.23582175562
aF121461.05752484179
aF121070.23730753937
aF120734.4827947313
aF120412.88654180721
aF120051.34414309965
aF119681.26499286096
aF119207.61634301108
aF118822.11461595345
aF118409.4352992595
aF118033.88092527067
aF117740.3086229076
aF117356.20704848801
aF116954.87523750083
aF116560.97259461516
aF116207.27732001936
aF115836.78021376891
aF115432.0734079901
aF115074.45979578901
aF114683.2216224763
aF114269.41382455041
aF113814.40601280725
aF113397.94419420953
aF112971.80669394911
aF112571.59291529271
aF112161.28549896185
aF111757.2892184032
aF111345.72793403851
aF110984.33181993366
aF110558.7585602892
aF110239.25208742246
aF109881.78475982406
aF109497.11894478998
aF109076.31038367403
aF108679.46115090814
aF108293.6773035433
aF107885.06260905883
aF107427.67244804993
aF107026.90487767871
aF106573.4330542766
aF106219.33027257168
aF105810.56929348301
aF105584.81035395764
aF105350.37882719809
aF105016.4424230398
aF104704.09344686696
aF104487.87435330123
aF104255.25048629032
aF103877.32421193838
aF103532.04030207181
aF103103.38461684261
aF102766.51207170525
aF102330.98101008938
aF101939.73238787553
aF101419.01144225021
aF100906.69141245297
aF100588.87766143114
aF100245.84026512428
aF99934.1809163708
aF99516.03682482782
aF99133.19956734171
aF98679.73819284074
aF98225.57674202077
aF97839.5107743472
aF97420.10236586927
aF96995.92925886282
aF96566.00925670014
aF96137.76107858305
aF95707.14100010136
aF95285.21440665463
aF94833.28902049622
aF94490.38745989389
aF94163.04431181356
aF93875.50102491397
aF93504.84718515819
aF93098.61483993797
aF92725.86077122665
aF92464.6591619399
aF91879.33266586206
aF91664.09576892258
aF91258.41721541867
aF90854.70305516575
aF90304.82967774897
aF90052.17526889595
aF89802.03904501023
aF89359.78934051302
aF88883.34038538858
aF88679.31515845285
aF88384.61437485935
aF88050.54213499653
aF87682.28109340616
aF87082.52466603677
aF86576.93372802054
aF86155.27880598287
aF85724.37660719246
aF85272.03326502227
aF85128.95647344016
aF84830.33735223988
aF84547.14080785702
aF84574.7468024063
aF84349.26998318963
aF84260.15131267226
aF83902.53770047115
aF83785.38463049308
aF83587.66009042987
asg6
g7
(g8
(S'S24'
p119
I0
I1
tp120
Rp121
(I3
S'|'
p122
NNNI24
I1
I0
tp123
bS'220 kV Central Tocopilla'
p124
tp125
Rp126
sa(dp127
g2
(lp128
F426292.3976116916
aF426417.48724836577
aF426516.80848205835
aF426597.644845922
aF426666.8166874312
aF426714.17314076284
aF426687.19782030117
aF425807.10412779264
aF425807.9736201125
aF426058.7128818077
aF426292.3976116916
asg4
(lp129
F149505.45658291783
aF149493.1477783841
aF149522.64502388376
aF149519.9074120102
aF149516.91902652982
aF149517.4101248422
aF149641.78338491663
aF149628.72225956264
aF149538.90351272625
aF149522.21661897234
aF149505.45658291783
asg6
g7
(g8
(S'S27'
p130
I0
I1
tp131
Rp132
(I3
S'|'
p133
NNNI27
I1
I0
tp134
bS'220 kV Crucero-Encuentro.C2'
p135
tp136
Rp137
sa(dp138
g2
(lp139
F590474.9976551882
aF590518.683561225
aF590530.152769573
aF590544.0588947567
aF586822.5087116286
aF586958.8272059252
aF587144.3849558905
aF587232.3665215494
aF587352.8722324562
aF587488.9404565701
aF587613.5475732987
aF588124.1867317227
aF588660.0096929143
aF588783.8926375005
aF589018.6092443699
aF589364.5908724358
aF589393.7353747315
aF589399.3697491032
aF589442.4994809562
aF589471.0848851828
aF589623.547007659
aF589852.6624058336
aF589990.1636854145
aF590718.8458366436
aF590929.8822201961
aF591065.2732049348
aF591496.8470649575
aF591600.5666704611
aF591765.9309979775
aF591867.9387635235
aF591876.15435223
aF591922.3068842879
aF591961.5515269605
aF591987.7294747741
aF592007.4802735676
aF592074.2103054505
aF592147.6465678932
aF592204.2492769803
aF592254.1453463435
aF592295.0546478801
aF592363.806641147
aF592426.6120293625
aF592450.296719925
aF592508.5861776951
aF592605.0232120254
aF592652.6714874972
aF592722.1820658892
aF592713.5980447023
aF592705.3605098454
aF592699.7607721835
aF592693.9598443825
aF592692.9986114516
aF592686.8623673804
aF592681.7879489227
aF592531.0412573204
aF592404.894513682
aF592297.837818067
aF592181.8049395597
aF592055.1525929729
aF591763.1253844835
aF591543.9619341614
aF591362.9126888956
aF591104.4863087763
aF590855.0768931471
aF590586.0007719337
aF590362.3170061265
aF590248.562443492
aF590132.5042747157
aF590001.3761386313
aF589875.2216358371
aF589747.2887142408
aF589612.3454820695
aF589477.7030086126
aF589360.5215938394
aF589231.7798435241
aF589110.7062503397
aF588993.5222814404
aF588994.640239587
aF588995.7917363988
aF588998.5642720899
aF588999.1344305831
aF588999.1567897392
aF589001.929324876
aF589004.6236025346
aF589005.7192007955
aF589006.9824925796
aF589008.6817875737
aF589010.3363641128
aF589011.4878598517
aF589013.7014145465
aF589015.9708667835
aF589018.0502661029
aF589019.3135569603
aF589022.1419865922
aF589023.2599428375
aF589025.5070346659
aF589027.7429466355
aF589029.3975213016
aF589031.6446123105
aF589032.6172336992
aF589035.0320175933
aF589038.3635244337
aF589038.9225020278
aF589041.0577962631
aF589043.4390403009
aF589044.3893019115
aF589047.8996796333
aF589049.4312773286
aF589049.0399932591
aF589051.2535430156
aF589052.9640130829
aF589110.1360956258
aF589172.9200752494
aF589232.1711233463
aF589285.5863234699
aF589154.4180543022
aF589039.5150182564
aF588875.2866088627
aF588878.081523716
aF588882.430410305
aF588886.8799126437
aF588893.051079771
aF588898.1266394453
aF588901.4581733784
aF588906.108904208
aF588932.9847370097
aF588961.4368510242
aF588991.2863649274
aF589024.9368770658
aF589056.8880319931
aF589088.8391262847
aF589121.326775806
aF589150.4940581215
aF589181.8860019525
aF589213.244348947
aF589245.1951465318
aF589278.6886397214
aF589310.7846449488
aF589342.1986486395
aF589375.8037421578
aF589408.8721619281
aF589440.1182933534
aF589473.3542757733
aF589506.4001454934
aF589540.0608074213
aF589572.5475863796
aF589605.6156198005
aF589639.2425459526
aF589671.2260726513
aF589704.2939123074
aF589736.2214200222
aF589768.0258974642
aF589802.9157314021
aF589833.7475078343
aF589865.7306651515
aF589899.9160209526
aF589931.8655157406
aF589962.697056117
aF589995.205377664
aF590026.9870082601
aF590061.3173621162
aF589946.9682824202
aF589852.8077329816
aF589751.3467202997
aF589632.5238735881
aF589512.5934440386
aF589394.2943405262
aF589274.3510348797
aF589161.6847114791
aF589059.1351193329
aF588941.4253495242
aF588819.7571443724
aF588699.8097456293
aF588579.3024993851
aF588455.9882260314
aF588330.4258649559
aF588208.227778635
aF588084.9219667916
aF588160.5892907246
aF588228.9668576242
aF588296.8186846473
aF588379.215411156
aF588467.1905209883
aF588556.3502375092
aF588644.8834122461
aF588733.4720201371
aF588823.1222328977
aF588913.9570095679
aF589003.0808211891
aF589093.2997535891
aF589181.8860019525
aF589263.1604564032
aF589350.571979946
aF589431.2978349361
aF589502.4762313389
aF589579.8364215014
aF589672.8805840896
aF589760.3458762513
aF589850.560751549
aF589939.1206584936
aF590031.0784836067
aF590119.6374413995
aF590205.9378207847
aF590296.7427814673
aF590385.6133449795
aF590474.9976551882
aF586822.5087116286
aF586794.1312483544
aF586715.6513242456
aF586648.3969021775
aF586579.7892877976
aF586497.6073735021
aF586432.5883363737
aF586386.6331989304
aF586226.8850081917
aF585964.0189477559
aF585817.1368753398
aF585617.3971140697
aF583520.6740723909
aF583395.6787506738
aF583295.9122010367
aF583159.1390261226
aF583058.8007115545
aF582957.1533168843
aF582836.8397622518
aF582688.2975216662
aF582564.4255745513
aF582464.1172583774
aF582345.8468438606
aF582284.1669543702
aF582200.9798288504
aF582058.2701135199
aF581953.7870433307
aF581785.8544777399
aF581649.6841476839
aF581573.417095819
aF581544.2702177931
aF581319.5266273366
aF581071.7839876893
aF580816.1522518015
aF580574.5652175136
aF580261.6008705362
aF580069.5354062724
aF579792.6355734044
aF579650.2968778466
aF579562.8236970888
aF579464.1753260386
aF579368.692009442
aF579304.9876902173
aF579231.0254974756
aF579083.0218300647
aF578982.7150722765
aF578891.323202556
aF578754.9168341327
aF578669.351866201
aF578534.8230312122
aF578444.3572080624
aF578283.1574681038
aF578177.0176118123
aF578092.6019385136
aF577977.1086164415
aF577894.4818517608
aF577827.4493870311
aF577764.1083837696
aF577698.5297208824
aF577650.9061605278
aF577543.8225749321
aF577430.0371249937
aF577370.0843782243
aF577305.0635415711
aF577238.3419665038
aF577001.0441515301
aF576673.6703510466
aF576427.2575479569
aF576255.208357471
aF575981.0873167394
aF575845.4628154482
aF575754.0762096713
aF575523.1348427474
aF575442.979844329
aF575207.592246999
aF574912.7321087029
aF574556.2367705372
aF573903.7929287725
aF573772.6498657572
aF573683.8255929598
aF573683.8255929598
aF573629.4543422093
aF573525.7579518217
aF573391.3780216658
aF573291.0371700474
aF573165.4843701655
aF572996.0649271826
aF572959.2377921557
aF572848.7894715839
aF572937.7972228401
aF572975.9000945291
aF572838.964347559
aF572493.1006375952
aF572359.0593213974
aF572357.4590554126
asg4
(lp140
F136585.50632033194
aF136507.9650313273
aF136486.15817643705
aF136454.4353151755
aF215548.62942990873
aF215268.3376798045
aF214886.05421403467
aF214707.25263238396
aF214453.89814721045
aF214177.02318749946
aF214050.31982266356
aF213509.4116016893
aF212954.50185433644
aF212823.90104969306
aF212575.0500405431
aF212211.24023047352
aF211672.02473134568
aF211482.00103079007
aF210582.9254059014
aF210529.11356944084
aF210285.28848132733
aF209903.60060287247
aF209678.802962174
aF209235.9890170623
aF208882.32508916847
aF208651.92683791797
aF207926.6059758413
aF207751.16894008254
aF207473.14460134032
aF207301.06166257244
aF207204.12721464227
aF206696.8226569803
aF206287.0794812654
aF205987.2273898306
aF205855.47720615746
aF205413.22750166027
aF204921.08429830932
aF204538.81128143915
aF204200.81025506987
aF203927.27894345007
aF203474.96694797886
aF203059.05892109743
aF202900.40281919253
aF202518.1298023224
aF201914.99838016136
aF201619.60796914852
aF201190.80599931514
aF200811.91842613777
aF200297.3309849785
aF199945.32843222911
aF199532.8058490375
aF199319.78411895875
aF199007.57097849046
aF198640.42796922935
aF198246.37904174096
aF197913.43528310859
aF197621.3989690866
aF197312.5503745073
aF196972.31328347794
aF196614.13543066237
aF196343.96866493305
aF196122.56691682705
aF195809.22529512682
aF195502.05897349428
aF195171.9155201379
aF194900.06648146335
aF194554.78257159676
aF194198.8512323409
aF193803.68427252176
aF193416.35398791323
aF193028.50125829183
aF192615.9368795001
aF192201.17823164843
aF191845.23644349293
aF191451.16661820223
aF191082.90557661335
aF190723.6096914655
aF190349.17334980893
aF189970.26487882927
aF189533.6157848841
aF189088.56577511088
aF188648.5521352752
aF188204.05591721679
aF187760.15528647482
aF187312.85876314036
aF186882.9074142772
aF186437.2931638895
aF185991.11467288435
aF185557.83012483118
aF185115.58042033395
aF184673.88450755156
aF184245.6781250361
aF183815.16253555697
aF183375.15934462097
aF182920.0052482736
aF182475.51947911485
aF182041.6706904457
aF181603.90356417125
aF181154.3605272756
aF180712.69596119516
aF180268.17884533593
aF179833.77626495197
aF179398.80944395205
aF178947.61548081163
aF178496.3692731714
aF178063.10562291753
aF177623.07108528106
aF177170.75908980987
aF176726.79576566693
aF176289.028639391
aF175902.2625953984
aF175514.94275969252
aF175083.90472519904
aF174679.2292661207
aF174315.9836966671
aF174077.20542738933
aF173869.81565456308
aF173574.97903526505
aF173298.0727288536
aF172939.3724310237
aF172515.6172800275
aF172058.79135963458
aF171576.17755334362
aF171136.17436240613
aF170740.9760558865
aF170369.35046840413
aF169993.26320050278
aF169584.61715931637
aF169130.59154420093
aF168682.73078025054
aF168230.38743808033
aF167800.46743591764
aF167401.9359302065
aF166968.65138215185
aF166539.8598612196
aF166094.23516193073
aF165646.96998529826
aF165209.17151232183
aF164767.4860484391
aF164315.69649798374
aF163871.21072882647
aF163439.62935151785
aF162994.54799504415
aF162542.76889348842
aF162092.67206487796
aF161641.44675503855
aF161202.56159643183
aF160753.01855953765
aF160317.49794682293
aF159870.2014234885
aF159431.3058159821
aF158989.64124990167
aF158556.3358040462
aF158115.20413187976
aF157665.6610949841
aF157226.7759363789
aF156803.57457709903
aF156365.80745082308
aF155923.55774632588
aF155480.77514791465
aF155039.0478884303
aF154648.92774744838
aF154321.58459936804
aF153969.01780600415
aF153560.39266261854
aF153145.04887635162
aF152738.6702465272
aF152322.19797902982
aF151931.51359743194
aF151580.06483639736
aF151172.0039336277
aF150751.04908790757
aF150331.77651513417
aF149913.06818297523
aF149488.75924026573
aF149056.02848392588
aF148628.90878703922
aF148202.917571383
aF147831.29198390213
aF147502.26656287652
aF147167.63008239924
aF146768.53433607213
aF146341.97887980143
aF145903.64751290955
aF145476.53826492402
aF145037.64265741766
aF144607.158414639
aF144165.47295075774
aF143736.1067403099
aF143292.7390034819
aF142860.0186960432
aF142462.04098204686
aF142045.57916345063
aF141657.1308465128
aF141306.24632609417
aF140924.52710093884
aF140480.59512349637
aF140050.67512133368
aF139615.7083003338
aF139182.98799289507
aF138745.77465833395
aF138307.4537403432
aF137889.86344051504
aF137456.0146518459
aF137021.87329396838
aF136585.50632033194
aF215548.62942990873
aF215644.90559712003
aF215922.3656952463
aF216162.82623746933
aF216407.88429581735
aF216700.9237042679
aF216926.25423888036
aF217098.90141826274
aF217326.46801753674
aF217702.02239152408
aF217918.387769694
aF218208.28205915887
aF222949.07350456403
aF223344.24046438467
aF223664.30072896625
aF224103.18588757297
aF224417.08130098798
aF224728.28089812957
aF225125.0256418929
aF225593.0632322896
aF225984.3014056023
aF226309.97272963705
aF226682.71634944872
aF226872.72960110317
aF227144.69357768146
aF227599.7327361251
aF227919.8974897107
aF228459.008499836
aF228896.22183439563
aF229141.16495483994
aF229227.48332008277
aF229471.31885709745
aF229739.80334988
aF230013.8989021158
aF230273.42868735548
aF230610.96996211287
aF230819.93751888178
aF231115.89217051057
aF231273.39889338272
aF231560.9421802838
aF231896.13245247593
aF232202.2956796814
aF232418.54611994763
aF232659.5709027866
aF233155.06820312838
aF233482.41135120872
aF233786.77736756526
aF234238.11761530838
aF234518.82732142293
aF234970.04218236415
aF235271.71238244724
aF235803.54050907522
aF236156.7864809573
aF236435.81391412657
aF236822.569509218
aF237091.1689399043
aF237314.14847195448
aF237528.2673365617
aF237738.4678635651
aF237900.45716465855
aF238259.75304980637
aF238630.26060495648
aF238826.43870777896
aF239048.96893711542
aF239269.81689350662
aF239624.1704488183
aF240107.9022874415
aF240481.6594505799
aF240736.14241698384
aF241150.3681709215
aF241350.47506024895
aF241489.48722962005
aF241835.32493120292
aF241956.96057940228
aF242080.8322922617
aF242239.45704746465
aF242432.84529391077
aF242782.04754138412
aF242854.35393134571
aF242901.57251172682
aF242901.57251172682
aF243074.20924220953
aF243392.58723384733
aF243825.84043520002
aF244133.57099744855
aF244535.46704905017
aF245063.5126737744
aF245189.0353128801
aF245533.75498213217
aF246006.8498402658
aF246218.72219131328
aF246367.13837093953
aF246729.2345613619
aF246875.38332962611
aF246929.88479350452
asg6
g7
(g8
(S'S28'
p141
I0
I1
tp142
Rp143
(I3
S'|'
p144
NNNI28
I1
I0
tp145
bS'220 kV Lagunas-Collahuasi.C1'
p146
tp147
Rp148
sa(dp149
g2
(lp150
F590628.3114350894
aF590637.8466900797
aF590650.2995237587
aF590664.8762581311
aF590680.1795799555
aF590695.1475343108
aF590710.4731855234
aF590727.2631973266
aF590743.3489519292
aF590758.0932819545
aF590780.3494827491
aF590799.5763126039
aF590820.1109897946
aF590843.887364835
aF590863.8407143271
aF590885.5043241656
aF590902.0370603027
aF590920.9507588269
aF590937.1816463075
aF590958.6215963
aF590976.7303962102
aF590998.024978613
aF591020.8397743064
aF591041.7765978519
aF591069.0402602074
aF591092.7492148578
aF591114.6137375296
aF591136.5005881488
aF591156.654797772
aF591180.1959571941
aF591204.6648672433
aF591230.1062362697
aF591257.5819774303
aF591279.9940113961
aF591305.1893496518
aF591333.2238698583
aF591357.3236832847
aF591385.3804727537
aF591414.8903523115
aF591436.3855843241
aF591456.9306634539
aF591475.3966217982
aF591495.0474196556
aF591519.8735655323
aF591546.5775600527
aF591572.5661285757
aF591597.816918706
aF591624.6884572683
aF591649.715612927
aF591674.5750643853
aF591699.2444568123
aF591725.0204123193
aF591751.7352595595
aF591774.9402556866
aF591802.3815754857
aF591826.5030734693
aF591844.979804601
aF591879.5300079258
aF591912.045809132
aF591885.8900991054
aF591832.6731637949
aF591742.793055993
aF591656.6682150052
aF591592.2056352803
aF591534.2483455716
aF591465.3364775088
aF591382.0158960819
aF591291.0155792609
aF591190.1221342152
aF591143.0286320643
aF591089.9770238632
aF591019.1630387818
aF590943.2961708028
aF590851.7345672874
aF590774.3466831204
aF590673.2824673112
aF590591.0534643754
aF590515.3858829169
aF590455.4127393481
aF590385.93752605
aF590300.7335828631
aF590218.3350798977
aF590103.9982450134
aF590042.704528349
aF589940.8533962835
aF589875.668795689
aF589815.883417998
aF589725.0535066645
aF589633.7088642493
aF589520.4636251833
aF589796.633107237
aF590084.1781418133
aF590284.848622675
aF590466.6248828811
aF590685.0533888075
aF590888.7572167362
aF591067.3635294787
aF591274.3602660117
aF591507.5443315171
aF591730.0951187764
aF591959.3495371817
aF592186.7230240223
aF592413.1545499633
aF592627.4893403882
aF592883.6234420929
aF593141.4972390067
aF593371.1124746348
aF593551.6036817753
aF593758.4358032928
aF593966.0253761886
aF594149.3154351912
aF594381.9009478181
aF594625.2008953686
aF594839.3175935596
aF595041.6637026458
aF595273.1640769993
aF595517.9151353692
aF595759.1313152025
aF595945.028021011
aF595813.5092468928
aF595653.1687182556
aF595483.8864462152
aF595342.1050907345
aF595213.7442741506
aF595107.8117802544
aF594973.2802425972
aF594834.634972346
aF594714.3168656551
aF594567.2652040189
aF594430.4941621139
aF594294.8507943
aF594146.2866949085
aF593996.6595423282
aF593854.4745185734
aF593738.2511742576
aF593593.2474869331
aF593524.1316788774
aF593425.1180962198
aF593273.0368401227
aF593082.4611188001
aF592932.2433266388
aF592792.1059090262
aF592651.9785039248
aF592501.7568767653
aF592362.7447932772
aF592221.4960757215
aF592071.2817903291
aF591930.0306306393
aF591778.6847968656
aF591646.395800313
aF591502.9054968003
aF591349.3202240202
aF591200.2271552677
aF591025.3446029248
aF590959.2028667238
aF590838.1305117095
aF590791.0472041611
aF590744.1426197579
aF590637.455442912
aF590645.3027415122
aF590681.1856415309
aF590745.081606999
aF590765.258641622
aF590793.4952711156
aF590883.4810470263
aF590944.5257824082
aF591013.719236291
aF591057.9291214645
aF591291.5968382168
aF591507.9914480476
aF591552.2335702046
asg4
(lp151
F136344.1994171857
aF136162.8796505662
aF135858.2419628021
aF135555.8507885992
aF135273.31252493523
aF134949.36526944736
aF134606.29652644
aF134257.083830067
aF133909.03096162487
aF133576.60964800682
aF133248.169365398
aF132953.31184829917
aF132633.8367221329
aF132304.22616269052
aF132008.3028577637
aF131671.95275763917
aF131423.67643800337
aF131148.43150673635
aF130905.16021033765
aF130601.38978129756
aF130318.29772591729
aF129987.02579133048
aF129655.22096282968
aF129336.25783277661
aF129008.38179078227
aF128658.58395599395
aF128330.12277558283
aF127988.75720332305
aF127692.24875997944
aF127335.75318010763
aF126968.64151754997
aF126614.3611045389
aF126182.19458881501
aF125890.16872369267
aF125525.2617790946
aF125153.08239989742
aF124812.28106825212
aF124442.33775371649
aF124040.46259991566
aF123659.28671757398
aF123382.41175786448
aF123115.60953802567
aF122864.49111751371
aF122518.05782861589
aF122154.31071194874
aF121807.87742305092
aF121455.31062968555
aF121099.933082146
aF120757.49127315558
aF120409.92950302732
aF120068.01013905273
aF119725.53698336185
aF119370.19078252127
aF119042.26249602565
aF118679.03782437283
aF118352.25891690847
aF118096.65791817375
aF117623.0406150258
aF117169.01499990888
aF117055.76981863793
aF116829.8750434095
aF116462.76338085036
aF116101.200084342
aF115836.63392916473
aF115595.07625241175
aF115309.76903017222
aF114965.58225483561
aF114584.44816809703
aF114166.85786826888
aF113975.16234366767
aF113757.64758646798
aF113461.1600409237
aF113148.92600265458
aF112765.52450455398
aF112450.51105880817
aF112029.58755978999
aF111691.00139500394
aF111373.75188459807
aF111120.95119114086
aF110833.40790423978
aF110489.80626731846
aF110141.72205217586
aF109679.2850723312
aF109416.98632851597
aF108998.25709855622
aF108719.6998659
aF108472.47888519401
aF108100.85329771166
aF107710.16891611376
aF107251.66072277556
aF106929.94953194923
aF106602.04214325293
aF106368.31069281239
aF106159.20730034044
aF105910.92053180496
aF105676.03970233318
aF105472.58916491455
aF105232.09727598957
aF104963.61278320699
aF104709.12981680305
aF104445.12790224174
aF104184.51143137175
aF103927.22815969179
aF103678.88914665503
aF103385.18100858745
aF103089.22635695864
aF102822.99882663693
aF102617.85556737191
aF102382.43139508498
aF102141.93950616148
aF101928.93867388353
aF101664.93675932224
aF101384.11211530399
aF101141.40505951975
aF100907.10936846325
aF100639.74290800997
aF100358.38537007771
aF100084.25847114147
aF99869.60671261876
aF99579.785565456
aF99223.30043448533
aF98844.38151460749
aF98530.49655009212
aF98244.06084662216
aF98008.08288262041
aF97707.64565277034
aF97399.94643722229
aF97128.06605184726
aF96802.99031512895
aF96499.74233110319
aF96195.38676364631
aF95867.4793749515
aF95528.92455686592
aF95214.99779675041
aF94957.19208005759
aF94632.05364993683
aF94474.01403314919
aF94258.63085160698
aF93910.66157436662
aF93483.59412198125
aF93154.01490924085
aF92839.00146349503
aF92520.62347185872
aF92192.15184254794
aF91874.90233214208
aF91563.2429833871
aF91228.05271119499
aF90908.55668722792
aF90565.51929092106
aF90281.89434162679
aF89960.15180409998
aF89613.74986190263
aF89285.27823259185
aF88900.76915106163
aF88746.062733464
aF88484.86112417873
aF88232.62467133599
aF88004.29530234201
aF87461.33909691204
aF87403.04468223173
aF87211.34915763052
aF86811.13537897413
aF86681.0988149467
aF86477.51244182355
aF85918.98737497193
aF85524.17567776209
aF85162.36160764696
aF84885.08958972503
aF84662.67429829229
aF84447.34336124989
aF84403.13406415145
asg6
g7
(g8
(S'S27'
p152
I0
I1
tp153
Rp154
(I3
S'|'
p155
NNNI27
I1
I0
tp156
bS'220 kV Tarapac\xc3\xa1-Lagunas.C1'
p157
tp158
Rp159
sa(dp160
g2
(lp161
F590628.3114350894
aF590637.8466900797
aF590650.2995237587
aF590664.8762581311
aF590680.1795799555
aF590695.1475343108
aF590710.4731855234
aF590727.2631973266
aF590743.3489519292
aF590758.0932819545
aF590780.3494827491
aF590799.5763126039
aF590820.1109897946
aF590843.887364835
aF590863.8407143271
aF590885.5043241656
aF590902.0370603027
aF590920.9507588269
aF590937.1816463075
aF590958.6215963
aF590976.7303962102
aF590998.024978613
aF591020.8397743064
aF591041.7765978519
aF591069.0402602074
aF591092.7492148578
aF591114.6137375296
aF591136.5005881488
aF591156.654797772
aF591180.1959571941
aF591204.6648672433
aF591230.1062362697
aF591257.5819774303
aF591279.9940113961
aF591305.1893496518
aF591333.2238698583
aF591357.3236832847
aF591385.3804727537
aF591414.8903523115
aF591436.3855843241
aF591456.9306634539
aF591475.3966217982
aF591495.0474196556
aF591519.8735655323
aF591546.5775600527
aF591572.5661285757
aF591597.816918706
aF591624.6884572683
aF591649.715612927
aF591674.5750643853
aF591699.2444568123
aF591725.0204123193
aF591751.7352595595
aF591774.9402556866
aF591802.3815754857
aF591826.5030734693
aF591844.979804601
aF591879.5300079258
aF591912.045809132
aF591885.8900991054
aF591832.6731637949
aF591742.793055993
aF591656.6682150052
aF591592.2056352803
aF591534.2483455716
aF591465.3364775088
aF591382.0158960819
aF591291.0155792609
aF591190.1221342152
aF591143.0286320643
aF591089.9770238632
aF591019.1630387818
aF590943.2961708028
aF590851.7345672874
aF590774.3466831204
aF590673.2824673112
aF590591.0534643754
aF590515.3858829169
aF590455.4127393481
aF590385.93752605
aF590300.7335828631
aF590218.3350798977
aF590103.9982450134
aF590042.704528349
aF589940.8533962835
aF589875.668795689
aF589815.883417998
aF589725.0535066645
aF589633.7088642493
aF589520.4636251833
aF589796.633107237
aF590084.1781418133
aF590284.848622675
aF590466.6248828811
aF590685.0533888075
aF590888.7572167362
aF591067.3635294787
aF591274.3602660117
aF591507.5443315171
aF591730.0951187764
aF591959.3495371817
aF592186.7230240223
aF592413.1545499633
aF592627.4893403882
aF592883.6234420929
aF593141.4972390067
aF593371.1124746348
aF593551.6036817753
aF593758.4358032928
aF593966.0253761886
aF594149.3154351912
aF594381.9009478181
aF594625.2008953686
aF594839.3175935596
aF595041.6637026458
aF595273.1640769993
aF595517.9151353692
aF595759.1313152025
aF595945.028021011
aF595813.5092468928
aF595653.1687182556
aF595483.8864462152
aF595342.1050907345
aF595213.7442741506
aF595107.8117802544
aF594973.2802425972
aF594834.634972346
aF594714.3168656551
aF594567.2652040189
aF594430.4941621139
aF594294.8507943
aF594146.2866949085
aF593996.6595423282
aF593854.4745185734
aF593738.2511742576
aF593593.2474869331
aF593524.1316788774
aF593425.1180962198
aF593273.0368401227
aF593082.4611188001
aF592932.2433266388
aF592792.1059090262
aF592651.9785039248
aF592501.7568767653
aF592362.7447932772
aF592221.4960757215
aF592071.2817903291
aF591930.0306306393
aF591778.6847968656
aF591646.395800313
aF591502.9054968003
aF591349.3202240202
aF591200.2271552677
aF591025.3446029248
aF590959.2028667238
aF590838.1305117095
aF590791.0472041611
aF590744.1426197579
aF590637.455442912
aF590645.3027415122
aF590681.1856415309
aF590745.081606999
aF590765.258641622
aF590793.4952711156
aF590883.4810470263
aF590944.5257824082
aF591013.719236291
aF591057.9291214645
aF591291.5968382168
aF591507.9914480476
aF591552.2335702046
asg4
(lp162
F136344.1994171857
aF136162.8796505662
aF135858.2419628021
aF135555.8507885992
aF135273.31252493523
aF134949.36526944736
aF134606.29652644
aF134257.083830067
aF133909.03096162487
aF133576.60964800682
aF133248.169365398
aF132953.31184829917
aF132633.8367221329
aF132304.22616269052
aF132008.3028577637
aF131671.95275763917
aF131423.67643800337
aF131148.43150673635
aF130905.16021033765
aF130601.38978129756
aF130318.29772591729
aF129987.02579133048
aF129655.22096282968
aF129336.25783277661
aF129008.38179078227
aF128658.58395599395
aF128330.12277558283
aF127988.75720332305
aF127692.24875997944
aF127335.75318010763
aF126968.64151754997
aF126614.3611045389
aF126182.19458881501
aF125890.16872369267
aF125525.2617790946
aF125153.08239989742
aF124812.28106825212
aF124442.33775371649
aF124040.46259991566
aF123659.28671757398
aF123382.41175786448
aF123115.60953802567
aF122864.49111751371
aF122518.05782861589
aF122154.31071194874
aF121807.87742305092
aF121455.31062968555
aF121099.933082146
aF120757.49127315558
aF120409.92950302732
aF120068.01013905273
aF119725.53698336185
aF119370.19078252127
aF119042.26249602565
aF118679.03782437283
aF118352.25891690847
aF118096.65791817375
aF117623.0406150258
aF117169.01499990888
aF117055.76981863793
aF116829.8750434095
aF116462.76338085036
aF116101.200084342
aF115836.63392916473
aF115595.07625241175
aF115309.76903017222
aF114965.58225483561
aF114584.44816809703
aF114166.85786826888
aF113975.16234366767
aF113757.64758646798
aF113461.1600409237
aF113148.92600265458
aF112765.52450455398
aF112450.51105880817
aF112029.58755978999
aF111691.00139500394
aF111373.75188459807
aF111120.95119114086
aF110833.40790423978
aF110489.80626731846
aF110141.72205217586
aF109679.2850723312
aF109416.98632851597
aF108998.25709855622
aF108719.6998659
aF108472.47888519401
aF108100.85329771166
aF107710.16891611376
aF107251.66072277556
aF106929.94953194923
aF106602.04214325293
aF106368.31069281239
aF106159.20730034044
aF105910.92053180496
aF105676.03970233318
aF105472.58916491455
aF105232.09727598957
aF104963.61278320699
aF104709.12981680305
aF104445.12790224174
aF104184.51143137175
aF103927.22815969179
aF103678.88914665503
aF103385.18100858745
aF103089.22635695864
aF102822.99882663693
aF102617.85556737191
aF102382.43139508498
aF102141.93950616148
aF101928.93867388353
aF101664.93675932224
aF101384.11211530399
aF101141.40505951975
aF100907.10936846325
aF100639.74290800997
aF100358.38537007771
aF100084.25847114147
aF99869.60671261876
aF99579.785565456
aF99223.30043448533
aF98844.38151460749
aF98530.49655009212
aF98244.06084662216
aF98008.08288262041
aF97707.64565277034
aF97399.94643722229
aF97128.06605184726
aF96802.99031512895
aF96499.74233110319
aF96195.38676364631
aF95867.4793749515
aF95528.92455686592
aF95214.99779675041
aF94957.19208005759
aF94632.05364993683
aF94474.01403314919
aF94258.63085160698
aF93910.66157436662
aF93483.59412198125
aF93154.01490924085
aF92839.00146349503
aF92520.62347185872
aF92192.15184254794
aF91874.90233214208
aF91563.2429833871
aF91228.05271119499
aF90908.55668722792
aF90565.51929092106
aF90281.89434162679
aF89960.15180409998
aF89613.74986190263
aF89285.27823259185
aF88900.76915106163
aF88746.062733464
aF88484.86112417873
aF88232.62467133599
aF88004.29530234201
aF87461.33909691204
aF87403.04468223173
aF87211.34915763052
aF86811.13537897413
aF86681.0988149467
aF86477.51244182355
aF85918.98737497193
aF85524.17567776209
aF85162.36160764696
aF84885.08958972503
aF84662.67429829229
aF84447.34336124989
aF84403.13406415145
asg6
g7
(g8
(S'S27'
p163
I0
I1
tp164
Rp165
(I3
S'|'
p166
NNNI27
I1
I0
tp167
bS'220 kV Tarapac\xc3\xa1-Lagunas.C2'
p168
tp169
Rp170
sa(dp171
g2
(lp172
F590528.6660207831
aF590513.4072756213
aF590501.0773051484
aF590474.9976551882
aF586822.5087116286
aF586958.8272059252
aF587144.3849558905
aF587232.3665215494
aF587352.8722324562
aF587488.9404565701
aF587613.5475732987
aF588124.1867317227
aF588660.0096929143
aF588783.8926375005
aF589018.6092443699
aF589364.5908724358
aF589393.7353747315
aF589399.3697491032
aF589442.4994809562
aF589471.0848851828
aF589623.547007659
aF589852.6624058336
aF589990.1636854145
aF590718.8458366436
aF590929.8822201961
aF591065.2732049348
aF591496.8470649575
aF591600.5666704611
aF591765.9309979775
aF591867.9387635235
aF591876.15435223
aF591922.3068842879
aF591961.5515269605
aF591987.7294747741
aF592007.4802735676
aF592074.2103054505
aF592147.6465678932
aF592204.2492769803
aF592254.1453463435
aF592295.0546478801
aF592363.806641147
aF592426.6120293625
aF592450.296719925
aF592508.5861776951
aF592605.0232120254
aF592652.6714874972
aF592722.1820658892
aF592713.5980447023
aF592705.3605098454
aF592699.7607721835
aF592693.9598443825
aF592692.9986114516
aF592686.8623673804
aF592681.7879489227
aF592531.0412573204
aF592404.894513682
aF592297.837818067
aF592181.8049395597
aF592055.1525929729
aF591763.1253844835
aF591543.9619341614
aF591362.9126888956
aF591104.4863087763
aF590855.0768931471
aF590586.0007719337
aF590362.3170061265
aF590248.562443492
aF590132.5042747157
aF590001.3761386313
aF589875.2216358371
aF589747.2887142408
aF589612.3454820695
aF589477.7030086126
aF589360.5215938394
aF589231.7798435241
aF589110.7062503397
aF588993.5222814404
aF588994.640239587
aF588995.7917363988
aF588998.5642720899
aF588999.1344305831
aF588999.1567897392
aF589001.929324876
aF589004.6236025346
aF589005.7192007955
aF589006.9824925796
aF589008.6817875737
aF589010.3363641128
aF589011.4878598517
aF589013.7014145465
aF589015.9708667835
aF589018.0502661029
aF589019.3135569603
aF589022.1419865922
aF589023.2599428375
aF589025.5070346659
aF589027.7429466355
aF589029.3975213016
aF589031.6446123105
aF589032.6172336992
aF589035.0320175933
aF589038.3635244337
aF589038.9225020278
aF589041.0577962631
aF589043.4390403009
aF589044.3893019115
aF589047.8996796333
aF589049.4312773286
aF589049.0399932591
aF589051.2535430156
aF589052.9640130829
aF589110.1360956258
aF589172.9200752494
aF589232.1711233463
aF589285.5863234699
aF589154.4180543022
aF589039.5150182564
aF588875.2866088627
aF588878.081523716
aF588882.430410305
aF588886.8799126437
aF588893.051079771
aF588898.1266394453
aF588901.4581733784
aF588906.108904208
aF588932.9847370097
aF588961.4368510242
aF588991.2863649274
aF589024.9368770658
aF589056.8880319931
aF589088.8391262847
aF589121.326775806
aF589150.4940581215
aF589181.8860019525
aF589213.244348947
aF589245.1951465318
aF589278.6886397214
aF589310.7846449488
aF589342.1986486395
aF589375.8037421578
aF589408.8721619281
aF589440.1182933534
aF589473.3542757733
aF589506.4001454934
aF589540.0608074213
aF589572.5475863796
aF589605.6156198005
aF589639.2425459526
aF589671.2260726513
aF589704.2939123074
aF589736.2214200222
aF589768.0258974642
aF589802.9157314021
aF589833.7475078343
aF589865.7306651515
aF589899.9160209526
aF589931.8655157406
aF589962.697056117
aF589995.205377664
aF590026.9870082601
aF590061.3173621162
aF589946.9682824202
aF589852.8077329816
aF589751.3467202997
aF589632.5238735881
aF589512.5934440386
aF589394.2943405262
aF589274.3510348797
aF589161.6847114791
aF589059.1351193329
aF588941.4253495242
aF588819.7571443724
aF588699.8097456293
aF588579.3024993851
aF588455.9882260314
aF588330.4258649559
aF588208.227778635
aF588084.9219667916
aF588160.5892907246
aF588228.9668576242
aF588296.8186846473
aF588379.215411156
aF588467.1905209883
aF588556.3502375092
aF588644.8834122461
aF588733.4720201371
aF588823.1222328977
aF588913.9570095679
aF589003.0808211891
aF589093.2997535891
aF589181.8860019525
aF589263.1604564032
aF589350.571979946
aF589431.2978349361
aF589502.4762313389
aF589579.8364215014
aF589672.8805840896
aF589760.3458762513
aF589850.560751549
aF589939.1206584936
aF590031.0784836067
aF590119.6374413995
aF590205.9378207847
aF590296.7427814673
aF590385.6133449795
aF590474.9976551882
aF573683.8255929598
aF573758.6179447277
aF573883.9425004381
aF574048.4071762441
aF574253.890638011
aF574595.4996309686
aF574795.023806802
aF575019.2618839955
aF575193.5503401998
aF575289.9637371902
aF575551.1621490549
aF575854.1785295899
aF575885.572964245
aF575995.6544103576
aF576349.9150657589
aF576549.4519004859
aF576853.5913622337
aF576896.4176930352
aF577047.561992853
aF577134.6455506091
aF577281.5029352475
aF577386.3171733455
aF577408.1771634286
aF577470.9601493566
aF577593.7062484673
aF577762.4303249698
aF577821.307714222
aF577918.8134961859
aF578139.1279366682
aF578185.6202453463
aF578316.0016213665
aF578412.6319688521
aF578483.2641719258
aF578606.036417272
aF578717.0284651541
aF578826.3306395984
aF578920.4970628335
aF579046.0514711514
aF579195.4872861123
aF579294.8978882208
aF579410.7288973923
aF579537.0738324085
aF579582.4772379249
aF579833.8995870757
aF580114.3780959849
aF580243.3015593635
aF580446.237119047
aF580637.6830880083
aF580789.6101730606
aF580949.3317829706
aF581183.632133374
aF581385.6727343197
aF581580.4857094176
aF581686.6711383937
aF581792.5874707396
aF581920.9500117847
aF581994.7325843088
aF582039.2122352677
aF582187.5589041635
aF582272.9493544684
aF582390.6610838235
aF582521.8485756437
aF582543.4558289289
aF582656.3789979112
aF582703.4291622201
aF582780.2278992985
aF582902.2194044464
aF582981.4776201458
aF583068.1054043728
aF584887.7895358526
aF585121.5317524537
aF585216.2555227764
aF585568.8231942197
aF585725.2454744754
aF585846.8466063226
aF586083.3820499014
aF586294.5101011987
aF586428.4736235896
aF586624.2903472683
aF586764.9822439188
aF586822.5087116286
aF573683.8255929598
aF573629.4543422093
aF573525.7579518217
aF573391.3780216658
aF573291.0371700474
aF573165.4843701655
aF572996.0649271826
aF572959.2377921557
aF572848.7894715839
aF572937.7972228401
aF572975.9000945291
aF572838.964347559
aF572493.1006375952
aF572359.0593213974
aF572357.4590554126
asg4
(lp173
F136447.0792893761
aF136478.1647677196
aF136501.716588959
aF136585.50632033194
aF215548.62942990873
aF215268.3376798045
aF214886.05421403467
aF214707.25263238396
aF214453.89814721045
aF214177.02318749946
aF214050.31982266356
aF213509.4116016893
aF212954.50185433644
aF212823.90104969306
aF212575.0500405431
aF212211.24023047352
aF211672.02473134568
aF211482.00103079007
aF210582.9254059014
aF210529.11356944084
aF210285.28848132733
aF209903.60060287247
aF209678.802962174
aF209235.9890170623
aF208882.32508916847
aF208651.92683791797
aF207926.6059758413
aF207751.16894008254
aF207473.14460134032
aF207301.06166257244
aF207204.12721464227
aF206696.8226569803
aF206287.0794812654
aF205987.2273898306
aF205855.47720615746
aF205413.22750166027
aF204921.08429830932
aF204538.81128143915
aF204200.81025506987
aF203927.27894345007
aF203474.96694797886
aF203059.05892109743
aF202900.40281919253
aF202518.1298023224
aF201914.99838016136
aF201619.60796914852
aF201190.80599931514
aF200811.91842613777
aF200297.3309849785
aF199945.32843222911
aF199532.8058490375
aF199319.78411895875
aF199007.57097849046
aF198640.42796922935
aF198246.37904174096
aF197913.43528310859
aF197621.3989690866
aF197312.5503745073
aF196972.31328347794
aF196614.13543066237
aF196343.96866493305
aF196122.56691682705
aF195809.22529512682
aF195502.05897349428
aF195171.9155201379
aF194900.06648146335
aF194554.78257159676
aF194198.8512323409
aF193803.68427252176
aF193416.35398791323
aF193028.50125829183
aF192615.9368795001
aF192201.17823164843
aF191845.23644349293
aF191451.16661820223
aF191082.90557661335
aF190723.6096914655
aF190349.17334980893
aF189970.26487882927
aF189533.6157848841
aF189088.56577511088
aF188648.5521352752
aF188204.05591721679
aF187760.15528647482
aF187312.85876314036
aF186882.9074142772
aF186437.2931638895
aF185991.11467288435
aF185557.83012483118
aF185115.58042033395
aF184673.88450755156
aF184245.6781250361
aF183815.16253555697
aF183375.15934462097
aF182920.0052482736
aF182475.51947911485
aF182041.6706904457
aF181603.90356417125
aF181154.3605272756
aF180712.69596119516
aF180268.17884533593
aF179833.77626495197
aF179398.80944395205
aF178947.61548081163
aF178496.3692731714
aF178063.10562291753
aF177623.07108528106
aF177170.75908980987
aF176726.79576566693
aF176289.028639391
aF175902.2625953984
aF175514.94275969252
aF175083.90472519904
aF174679.2292661207
aF174315.9836966671
aF174077.20542738933
aF173869.81565456308
aF173574.97903526505
aF173298.0727288536
aF172939.3724310237
aF172515.6172800275
aF172058.79135963458
aF171576.17755334362
aF171136.17436240613
aF170740.9760558865
aF170369.35046840413
aF169993.26320050278
aF169584.61715931637
aF169130.59154420093
aF168682.73078025054
aF168230.38743808033
aF167800.46743591764
aF167401.9359302065
aF166968.65138215185
aF166539.8598612196
aF166094.23516193073
aF165646.96998529826
aF165209.17151232183
aF164767.4860484391
aF164315.69649798374
aF163871.21072882647
aF163439.62935151785
aF162994.54799504415
aF162542.76889348842
aF162092.67206487796
aF161641.44675503855
aF161202.56159643183
aF160753.01855953765
aF160317.49794682293
aF159870.2014234885
aF159431.3058159821
aF158989.64124990167
aF158556.3358040462
aF158115.20413187976
aF157665.6610949841
aF157226.7759363789
aF156803.57457709903
aF156365.80745082308
aF155923.55774632588
aF155480.77514791465
aF155039.0478884303
aF154648.92774744838
aF154321.58459936804
aF153969.01780600415
aF153560.39266261854
aF153145.04887635162
aF152738.6702465272
aF152322.19797902982
aF151931.51359743194
aF151580.06483639736
aF151172.0039336277
aF150751.04908790757
aF150331.77651513417
aF149913.06818297523
aF149488.75924026573
aF149056.02848392588
aF148628.90878703922
aF148202.917571383
aF147831.29198390213
aF147502.26656287652
aF147167.63008239924
aF146768.53433607213
aF146341.97887980143
aF145903.64751290955
aF145476.53826492402
aF145037.64265741766
aF144607.158414639
aF144165.47295075774
aF143736.1067403099
aF143292.7390034819
aF142860.0186960432
aF142462.04098204686
aF142045.57916345063
aF141657.1308465128
aF141306.24632609417
aF140924.52710093884
aF140480.59512349637
aF140050.67512133368
aF139615.7083003338
aF139182.98799289507
aF138745.77465833395
aF138307.4537403432
aF137889.86344051504
aF137456.0146518459
aF137021.87329396838
aF136585.50632033194
aF242901.57251172682
aF242831.9305913382
aF242705.92730281982
aF242548.30564204394
aF242348.3136906187
aF242018.05529935862
aF241824.1132611977
aF241608.31212364373
aF241438.47569843705
aF241302.26383434195
aF240927.2737009691
aF240491.86802615807
aF240445.33907319483
aF240293.32847187214
aF239784.9372285799
aF239499.06576572589
aF239067.01418790422
aF238929.0155618613
aF238473.42261170136
aF238203.69469978465
aF237745.18650644645
aF237404.9494154171
aF237348.9015142965
aF237164.4888731941
aF236777.73327810265
aF236268.21355357993
aF236079.88257487072
aF235781.6814096822
aF235100.08919529125
aF234956.03020708438
aF234554.24909338498
aF234258.17950385244
aF234039.013820408
aF233665.70595998038
aF233318.18598545375
aF232985.2317779202
aF232690.95939923814
aF232304.75759586153
aF231845.24630809628
aF231539.08308089076
aF231179.90213364665
aF230791.90311942107
aF230728.00809418721
aF230402.45170805618
aF230024.55678040473
aF229849.67353636082
aF229581.17859467707
aF229326.25677446203
aF229125.02140390268
aF228904.1838964126
aF228598.68939882415
aF228322.80708464058
aF228070.68556970154
aF227703.9918631542
aF227347.49628328238
aF226904.68233817068
aF226657.04340145295
aF226491.020824849
aF225993.94574056452
aF225703.4872104852
aF225305.50949648887
aF224851.48388137194
aF224778.17439698332
aF224400.2690204322
aF224237.15123810683
aF223975.94962882155
aF223562.95684511692
aF223293.2393821013
aF222996.8354277603
aF218338.21413418223
aF218002.45962137418
aF217864.011692619
aF217356.17424104305
aF217133.0902199903
aF216951.47788416388
aF216608.44048785852
aF216306.43592296544
aF216112.49388480448
aF215829.87202993728
aF215629.76514060982
aF215548.62942990873
aF242901.57251172682
aF243074.20924220953
aF243392.58723384733
aF243825.84043520002
aF244133.57099744855
aF244535.46704905017
aF245063.5126737744
aF245189.0353128801
aF245533.75498213217
aF246006.8498402658
aF246218.72219131328
aF246367.13837093953
aF246729.2345613619
aF246875.38332962611
aF246929.88479350452
asg6
g7
(g8
(S'S28'
p174
I0
I1
tp175
Rp176
(I3
S'|'
p177
NNNI28
I1
I0
tp178
bS'220 kV Lagunas-Collahuasi.C2'
p179
tp180
Rp181
sa.